	.file	"newfile292472.cpp"
	.text
	.section	.text._ZSt23__is_constant_evaluatedv,"axG",@progbits,_ZSt23__is_constant_evaluatedv,comdat
	.weak	_ZSt23__is_constant_evaluatedv
	.type	_ZSt23__is_constant_evaluatedv, @function
_ZSt23__is_constant_evaluatedv:
.LFB1:
	.cfi_startproc
	pushq	%rbp
	.cfi_def_cfa_offset 16
	.cfi_offset 6, -16
	movq	%rsp, %rbp
	.cfi_def_cfa_register 6
	movl	$0, %eax
	popq	%rbp
	.cfi_def_cfa 7, 8
	ret
	.cfi_endproc
.LFE1:
	.size	_ZSt23__is_constant_evaluatedv, .-_ZSt23__is_constant_evaluatedv
	.weak	_ZSt19piecewise_construct
	.section	.rodata._ZSt19piecewise_construct,"aG",@progbits,_ZSt19piecewise_construct,comdat
	.type	_ZSt19piecewise_construct, @gnu_unique_object
	.size	_ZSt19piecewise_construct, 1
_ZSt19piecewise_construct:
	.zero	1
	.section	.text._ZN9__gnu_cxx5__ops16__iter_less_iterEv,"axG",@progbits,_ZN9__gnu_cxx5__ops16__iter_less_iterEv,comdat
	.weak	_ZN9__gnu_cxx5__ops16__iter_less_iterEv
	.type	_ZN9__gnu_cxx5__ops16__iter_less_iterEv, @function
_ZN9__gnu_cxx5__ops16__iter_less_iterEv:
.LFB223:
	.cfi_startproc
	pushq	%rbp
	.cfi_def_cfa_offset 16
	.cfi_offset 6, -16
	movq	%rsp, %rbp
	.cfi_def_cfa_register 6
	nop
	popq	%rbp
	.cfi_def_cfa 7, 8
	ret
	.cfi_endproc
.LFE223:
	.size	_ZN9__gnu_cxx5__ops16__iter_less_iterEv, .-_ZN9__gnu_cxx5__ops16__iter_less_iterEv
	.section	.text._ZN9__gnu_cxx5__ops14_Iter_less_valC2ENS0_15_Iter_less_iterE,"axG",@progbits,_ZN9__gnu_cxx5__ops14_Iter_less_valC5ENS0_15_Iter_less_iterE,comdat
	.align 2
	.weak	_ZN9__gnu_cxx5__ops14_Iter_less_valC2ENS0_15_Iter_less_iterE
	.type	_ZN9__gnu_cxx5__ops14_Iter_less_valC2ENS0_15_Iter_less_iterE, @function
_ZN9__gnu_cxx5__ops14_Iter_less_valC2ENS0_15_Iter_less_iterE:
.LFB225:
	.cfi_startproc
	pushq	%rbp
	.cfi_def_cfa_offset 16
	.cfi_offset 6, -16
	movq	%rsp, %rbp
	.cfi_def_cfa_register 6
	movq	%rdi, -8(%rbp)
	nop
	popq	%rbp
	.cfi_def_cfa 7, 8
	ret
	.cfi_endproc
.LFE225:
	.size	_ZN9__gnu_cxx5__ops14_Iter_less_valC2ENS0_15_Iter_less_iterE, .-_ZN9__gnu_cxx5__ops14_Iter_less_valC2ENS0_15_Iter_less_iterE
	.weak	_ZN9__gnu_cxx5__ops14_Iter_less_valC1ENS0_15_Iter_less_iterE
	.set	_ZN9__gnu_cxx5__ops14_Iter_less_valC1ENS0_15_Iter_less_iterE,_ZN9__gnu_cxx5__ops14_Iter_less_valC2ENS0_15_Iter_less_iterE
	.section	.text._ZN9__gnu_cxx5__ops15__iter_less_valEv,"axG",@progbits,_ZN9__gnu_cxx5__ops15__iter_less_valEv,comdat
	.weak	_ZN9__gnu_cxx5__ops15__iter_less_valEv
	.type	_ZN9__gnu_cxx5__ops15__iter_less_valEv, @function
_ZN9__gnu_cxx5__ops15__iter_less_valEv:
.LFB228:
	.cfi_startproc
	pushq	%rbp
	.cfi_def_cfa_offset 16
	.cfi_offset 6, -16
	movq	%rsp, %rbp
	.cfi_def_cfa_register 6
	nop
	popq	%rbp
	.cfi_def_cfa 7, 8
	ret
	.cfi_endproc
.LFE228:
	.size	_ZN9__gnu_cxx5__ops15__iter_less_valEv, .-_ZN9__gnu_cxx5__ops15__iter_less_valEv
	.section	.text._ZN9__gnu_cxx5__ops15__val_comp_iterENS0_15_Iter_less_iterE,"axG",@progbits,_ZN9__gnu_cxx5__ops15__val_comp_iterENS0_15_Iter_less_iterE,comdat
	.weak	_ZN9__gnu_cxx5__ops15__val_comp_iterENS0_15_Iter_less_iterE
	.type	_ZN9__gnu_cxx5__ops15__val_comp_iterENS0_15_Iter_less_iterE, @function
_ZN9__gnu_cxx5__ops15__val_comp_iterENS0_15_Iter_less_iterE:
.LFB235:
	.cfi_startproc
	pushq	%rbp
	.cfi_def_cfa_offset 16
	.cfi_offset 6, -16
	movq	%rsp, %rbp
	.cfi_def_cfa_register 6
	nop
	popq	%rbp
	.cfi_def_cfa 7, 8
	ret
	.cfi_endproc
.LFE235:
	.size	_ZN9__gnu_cxx5__ops15__val_comp_iterENS0_15_Iter_less_iterE, .-_ZN9__gnu_cxx5__ops15__val_comp_iterENS0_15_Iter_less_iterE
	.section	.text._ZN9__gnu_cxx5__ops20__iter_equal_to_iterEv,"axG",@progbits,_ZN9__gnu_cxx5__ops20__iter_equal_to_iterEv,comdat
	.weak	_ZN9__gnu_cxx5__ops20__iter_equal_to_iterEv
	.type	_ZN9__gnu_cxx5__ops20__iter_equal_to_iterEv, @function
_ZN9__gnu_cxx5__ops20__iter_equal_to_iterEv:
.LFB237:
	.cfi_startproc
	pushq	%rbp
	.cfi_def_cfa_offset 16
	.cfi_offset 6, -16
	movq	%rsp, %rbp
	.cfi_def_cfa_register 6
	nop
	popq	%rbp
	.cfi_def_cfa 7, 8
	ret
	.cfi_endproc
.LFE237:
	.size	_ZN9__gnu_cxx5__ops20__iter_equal_to_iterEv, .-_ZN9__gnu_cxx5__ops20__iter_equal_to_iterEv
	.section	.text._ZSt17__size_to_integerm,"axG",@progbits,_ZSt17__size_to_integerm,comdat
	.weak	_ZSt17__size_to_integerm
	.type	_ZSt17__size_to_integerm, @function
_ZSt17__size_to_integerm:
.LFB314:
	.cfi_startproc
	pushq	%rbp
	.cfi_def_cfa_offset 16
	.cfi_offset 6, -16
	movq	%rsp, %rbp
	.cfi_def_cfa_register 6
	movq	%rdi, -8(%rbp)
	movq	-8(%rbp), %rax
	popq	%rbp
	.cfi_def_cfa 7, 8
	ret
	.cfi_endproc
.LFE314:
	.size	_ZSt17__size_to_integerm, .-_ZSt17__size_to_integerm
	.section	.text._ZSt4__lgl,"axG",@progbits,_ZSt4__lgl,comdat
	.weak	_ZSt4__lgl
	.type	_ZSt4__lgl, @function
_ZSt4__lgl:
.LFB348:
	.cfi_startproc
	pushq	%rbp
	.cfi_def_cfa_offset 16
	.cfi_offset 6, -16
	movq	%rsp, %rbp
	.cfi_def_cfa_register 6
	movq	%rdi, -8(%rbp)
	movq	-8(%rbp), %rax
	bsrq	%rax, %rax
	xorq	$63, %rax
	movl	%eax, %edx
	movl	$63, %eax
	subl	%edx, %eax
	cltq
	popq	%rbp
	.cfi_def_cfa 7, 8
	ret
	.cfi_endproc
.LFE348:
	.size	_ZSt4__lgl, .-_ZSt4__lgl
	.section	.text._ZnwmPv,"axG",@progbits,_ZnwmPv,comdat
	.weak	_ZnwmPv
	.type	_ZnwmPv, @function
_ZnwmPv:
.LFB411:
	.cfi_startproc
	pushq	%rbp
	.cfi_def_cfa_offset 16
	.cfi_offset 6, -16
	movq	%rsp, %rbp
	.cfi_def_cfa_register 6
	movq	%rdi, -8(%rbp)
	movq	%rsi, -16(%rbp)
	movq	-16(%rbp), %rax
	popq	%rbp
	.cfi_def_cfa 7, 8
	ret
	.cfi_endproc
.LFE411:
	.size	_ZnwmPv, .-_ZnwmPv
	.section	.text._ZdlPvS_,"axG",@progbits,_ZdlPvS_,comdat
	.weak	_ZdlPvS_
	.type	_ZdlPvS_, @function
_ZdlPvS_:
.LFB413:
	.cfi_startproc
	pushq	%rbp
	.cfi_def_cfa_offset 16
	.cfi_offset 6, -16
	movq	%rsp, %rbp
	.cfi_def_cfa_register 6
	movq	%rdi, -8(%rbp)
	movq	%rsi, -16(%rbp)
	nop
	popq	%rbp
	.cfi_def_cfa 7, 8
	ret
	.cfi_endproc
.LFE413:
	.size	_ZdlPvS_, .-_ZdlPvS_
	.section	.rodata
	.type	_ZN6__pstl9execution2v1L3seqE, @object
	.size	_ZN6__pstl9execution2v1L3seqE, 1
_ZN6__pstl9execution2v1L3seqE:
	.zero	1
	.type	_ZN6__pstl9execution2v1L3parE, @object
	.size	_ZN6__pstl9execution2v1L3parE, 1
_ZN6__pstl9execution2v1L3parE:
	.zero	1
	.type	_ZN6__pstl9execution2v1L9par_unseqE, @object
	.size	_ZN6__pstl9execution2v1L9par_unseqE, 1
_ZN6__pstl9execution2v1L9par_unseqE:
	.zero	1
	.type	_ZN6__pstl9execution2v1L5unseqE, @object
	.size	_ZN6__pstl9execution2v1L5unseqE, 1
_ZN6__pstl9execution2v1L5unseqE:
	.zero	1
	.section	.text._ZNKSt9type_info4nameEv,"axG",@progbits,_ZNKSt9type_info4nameEv,comdat
	.align 2
	.weak	_ZNKSt9type_info4nameEv
	.type	_ZNKSt9type_info4nameEv, @function
_ZNKSt9type_info4nameEv:
.LFB673:
	.cfi_startproc
	pushq	%rbp
	.cfi_def_cfa_offset 16
	.cfi_offset 6, -16
	movq	%rsp, %rbp
	.cfi_def_cfa_register 6
	movq	%rdi, -8(%rbp)
	movq	-8(%rbp), %rax
	movq	8(%rax), %rax
	movzbl	(%rax), %eax
	cmpb	$42, %al
	jne	.L20
	movq	-8(%rbp), %rax
	movq	8(%rax), %rax
	addq	$1, %rax
	jmp	.L22
.L20:
	movq	-8(%rbp), %rax
	movq	8(%rax), %rax
.L22:
	popq	%rbp
	.cfi_def_cfa 7, 8
	ret
	.cfi_endproc
.LFE673:
	.size	_ZNKSt9type_info4nameEv, .-_ZNKSt9type_info4nameEv
	.section	.text._ZNKSt9type_infoeqERKS_,"axG",@progbits,_ZNKSt9type_infoeqERKS_,comdat
	.align 2
	.weak	_ZNKSt9type_infoeqERKS_
	.type	_ZNKSt9type_infoeqERKS_, @function
_ZNKSt9type_infoeqERKS_:
.LFB680:
	.cfi_startproc
	pushq	%rbp
	.cfi_def_cfa_offset 16
	.cfi_offset 6, -16
	movq	%rsp, %rbp
	.cfi_def_cfa_register 6
	subq	$16, %rsp
	movq	%rdi, -8(%rbp)
	movq	%rsi, -16(%rbp)
	call	_ZSt23__is_constant_evaluatedv
	testb	%al, %al
	je	.L24
	movq	-8(%rbp), %rax
	cmpq	-16(%rbp), %rax
	sete	%al
	jmp	.L25
.L24:
	movq	-8(%rbp), %rax
	movq	8(%rax), %rdx
	movq	-16(%rbp), %rax
	movq	8(%rax), %rax
	cmpq	%rax, %rdx
	jne	.L26
	movl	$1, %eax
	jmp	.L25
.L26:
	movq	-8(%rbp), %rax
	movq	8(%rax), %rax
	movzbl	(%rax), %eax
	cmpb	$42, %al
	je	.L27
	movq	-16(%rbp), %rax
	movq	%rax, %rdi
	call	_ZNKSt9type_info4nameEv
	movq	%rax, %rdx
	movq	-8(%rbp), %rax
	movq	8(%rax), %rax
	movq	%rdx, %rsi
	movq	%rax, %rdi
	call	strcmp@PLT
	testl	%eax, %eax
	jne	.L27
	movl	$1, %eax
	jmp	.L29
.L27:
	movl	$0, %eax
.L29:
	nop
.L25:
	leave
	.cfi_def_cfa 7, 8
	ret
	.cfi_endproc
.LFE680:
	.size	_ZNKSt9type_infoeqERKS_, .-_ZNKSt9type_infoeqERKS_
	.section	.text._ZNSt11char_traitsIcE2ltERKcS2_,"axG",@progbits,_ZNSt11char_traitsIcE2ltERKcS2_,comdat
	.weak	_ZNSt11char_traitsIcE2ltERKcS2_
	.type	_ZNSt11char_traitsIcE2ltERKcS2_, @function
_ZNSt11char_traitsIcE2ltERKcS2_:
.LFB807:
	.cfi_startproc
	pushq	%rbp
	.cfi_def_cfa_offset 16
	.cfi_offset 6, -16
	movq	%rsp, %rbp
	.cfi_def_cfa_register 6
	movq	%rdi, -8(%rbp)
	movq	%rsi, -16(%rbp)
	movq	-8(%rbp), %rax
	movzbl	(%rax), %eax
	movl	%eax, %edx
	movq	-16(%rbp), %rax
	movzbl	(%rax), %eax
	cmpb	%al, %dl
	setb	%al
	popq	%rbp
	.cfi_def_cfa 7, 8
	ret
	.cfi_endproc
.LFE807:
	.size	_ZNSt11char_traitsIcE2ltERKcS2_, .-_ZNSt11char_traitsIcE2ltERKcS2_
	.section	.text._ZNSt11char_traitsIcE7compareEPKcS2_m,"axG",@progbits,_ZNSt11char_traitsIcE7compareEPKcS2_m,comdat
	.weak	_ZNSt11char_traitsIcE7compareEPKcS2_m
	.type	_ZNSt11char_traitsIcE7compareEPKcS2_m, @function
_ZNSt11char_traitsIcE7compareEPKcS2_m:
.LFB808:
	.cfi_startproc
	pushq	%rbp
	.cfi_def_cfa_offset 16
	.cfi_offset 6, -16
	movq	%rsp, %rbp
	.cfi_def_cfa_register 6
	subq	$48, %rsp
	movq	%rdi, -24(%rbp)
	movq	%rsi, -32(%rbp)
	movq	%rdx, -40(%rbp)
	cmpq	$0, -40(%rbp)
	jne	.L33
	movl	$0, %eax
	jmp	.L34
.L33:
	call	_ZSt23__is_constant_evaluatedv
	testb	%al, %al
	je	.L35
	movq	$0, -8(%rbp)
	jmp	.L36
.L39:
	movq	-32(%rbp), %rdx
	movq	-8(%rbp), %rax
	addq	%rax, %rdx
	movq	-24(%rbp), %rcx
	movq	-8(%rbp), %rax
	addq	%rcx, %rax
	movq	%rdx, %rsi
	movq	%rax, %rdi
	call	_ZNSt11char_traitsIcE2ltERKcS2_
	testb	%al, %al
	je	.L37
	movl	$-1, %eax
	jmp	.L34
.L37:
	movq	-24(%rbp), %rdx
	movq	-8(%rbp), %rax
	addq	%rax, %rdx
	movq	-32(%rbp), %rcx
	movq	-8(%rbp), %rax
	addq	%rcx, %rax
	movq	%rdx, %rsi
	movq	%rax, %rdi
	call	_ZNSt11char_traitsIcE2ltERKcS2_
	testb	%al, %al
	je	.L38
	movl	$1, %eax
	jmp	.L34
.L38:
	addq	$1, -8(%rbp)
.L36:
	movq	-8(%rbp), %rax
	cmpq	-40(%rbp), %rax
	jb	.L39
	movl	$0, %eax
	jmp	.L34
.L35:
	movq	-40(%rbp), %rdx
	movq	-32(%rbp), %rcx
	movq	-24(%rbp), %rax
	movq	%rcx, %rsi
	movq	%rax, %rdi
	call	memcmp@PLT
	nop
.L34:
	leave
	.cfi_def_cfa 7, 8
	ret
	.cfi_endproc
.LFE808:
	.size	_ZNSt11char_traitsIcE7compareEPKcS2_m, .-_ZNSt11char_traitsIcE7compareEPKcS2_m
	.section	.text._ZNSt11char_traitsIcE6lengthEPKc,"axG",@progbits,_ZNSt11char_traitsIcE6lengthEPKc,comdat
	.weak	_ZNSt11char_traitsIcE6lengthEPKc
	.type	_ZNSt11char_traitsIcE6lengthEPKc, @function
_ZNSt11char_traitsIcE6lengthEPKc:
.LFB809:
	.cfi_startproc
	pushq	%rbp
	.cfi_def_cfa_offset 16
	.cfi_offset 6, -16
	movq	%rsp, %rbp
	.cfi_def_cfa_register 6
	subq	$16, %rsp
	movq	%rdi, -8(%rbp)
	call	_ZSt23__is_constant_evaluatedv
	testb	%al, %al
	je	.L41
	movq	-8(%rbp), %rax
	movq	%rax, %rdi
	call	_ZN9__gnu_cxx11char_traitsIcE6lengthEPKc
	jmp	.L42
.L41:
	movq	-8(%rbp), %rax
	movq	%rax, %rdi
	call	strlen@PLT
	nop
.L42:
	leave
	.cfi_def_cfa 7, 8
	ret
	.cfi_endproc
.LFE809:
	.size	_ZNSt11char_traitsIcE6lengthEPKc, .-_ZNSt11char_traitsIcE6lengthEPKc
	.section	.text._ZNKSt17integral_constantIbLb1EEcvbEv,"axG",@progbits,_ZNKSt17integral_constantIbLb1EEcvbEv,comdat
	.align 2
	.weak	_ZNKSt17integral_constantIbLb1EEcvbEv
	.type	_ZNKSt17integral_constantIbLb1EEcvbEv, @function
_ZNKSt17integral_constantIbLb1EEcvbEv:
.LFB1231:
	.cfi_startproc
	pushq	%rbp
	.cfi_def_cfa_offset 16
	.cfi_offset 6, -16
	movq	%rsp, %rbp
	.cfi_def_cfa_register 6
	movq	%rdi, -8(%rbp)
	movl	$1, %eax
	popq	%rbp
	.cfi_def_cfa 7, 8
	ret
	.cfi_endproc
.LFE1231:
	.size	_ZNKSt17integral_constantIbLb1EEcvbEv, .-_ZNKSt17integral_constantIbLb1EEcvbEv
	.section	.text._ZNSt7__cxx119to_stringEi,"axG",@progbits,_ZNSt7__cxx119to_stringEi,comdat
	.weak	_ZNSt7__cxx119to_stringEi
	.type	_ZNSt7__cxx119to_stringEi, @function
_ZNSt7__cxx119to_stringEi:
.LFB1474:
	.cfi_startproc
	.cfi_personality 0x9b,DW.ref.__gxx_personality_v0
	.cfi_lsda 0x1b,.LLSDA1474
	pushq	%rbp
	.cfi_def_cfa_offset 16
	.cfi_offset 6, -16
	movq	%rsp, %rbp
	.cfi_def_cfa_register 6
	subq	$32, %rsp
	movq	%rdi, -24(%rbp)
	movl	%esi, -28(%rbp)
	movl	-28(%rbp), %eax
	shrl	$31, %eax
	movb	%al, -1(%rbp)
	cmpb	$0, -1(%rbp)
	je	.L46
	movl	-28(%rbp), %eax
	negl	%eax
	jmp	.L47
.L46:
	movl	-28(%rbp), %eax
.L47:
	movl	%eax, -8(%rbp)
	movl	-8(%rbp), %eax
	movl	$10, %esi
	movl	%eax, %edi
	call	_ZNSt8__detail14__to_chars_lenIjEEjT_i
	movl	%eax, -12(%rbp)
	leaq	-13(%rbp), %rax
	movq	%rax, %rdi
	call	_ZNSaIcEC1Ev@PLT
	movzbl	-1(%rbp), %edx
	movl	-12(%rbp), %eax
	addl	%edx, %eax
	movl	%eax, %esi
	leaq	-13(%rbp), %rdx
	movq	-24(%rbp), %rax
	movq	%rdx, %rcx
	movl	$45, %edx
	movq	%rax, %rdi
	call	_ZNSt7__cxx1112basic_stringIcSt11char_traitsIcESaIcEEC1IS3_EEmcRKS3_
	leaq	-13(%rbp), %rax
	movq	%rax, %rdi
	call	_ZNSaIcED1Ev@PLT
	movzbl	-1(%rbp), %edx
	movq	-24(%rbp), %rax
	movq	%rdx, %rsi
	movq	%rax, %rdi
	call	_ZNSt7__cxx1112basic_stringIcSt11char_traitsIcESaIcEEixEm@PLT
	movq	%rax, %rcx
	movl	-8(%rbp), %edx
	movl	-12(%rbp), %eax
	movl	%eax, %esi
	movq	%rcx, %rdi
	call	_ZNSt8__detail18__to_chars_10_implIjEEvPcjT_
	nop
	movq	-24(%rbp), %rax
	leave
	.cfi_def_cfa 7, 8
	ret
	.cfi_endproc
.LFE1474:
	.globl	__gxx_personality_v0
	.section	.gcc_except_table._ZNSt7__cxx119to_stringEi,"aG",@progbits,_ZNSt7__cxx119to_stringEi,comdat
.LLSDA1474:
	.byte	0xff
	.byte	0xff
	.byte	0x1
	.uleb128 .LLSDACSE1474-.LLSDACSB1474
.LLSDACSB1474:
.LLSDACSE1474:
	.section	.text._ZNSt7__cxx119to_stringEi,"axG",@progbits,_ZNSt7__cxx119to_stringEi,comdat
	.size	_ZNSt7__cxx119to_stringEi, .-_ZNSt7__cxx119to_stringEi
	.section	.text._ZNSt7__cxx119to_stringEm,"axG",@progbits,_ZNSt7__cxx119to_stringEm,comdat
	.weak	_ZNSt7__cxx119to_stringEm
	.type	_ZNSt7__cxx119to_stringEm, @function
_ZNSt7__cxx119to_stringEm:
.LFB1477:
	.cfi_startproc
	.cfi_personality 0x9b,DW.ref.__gxx_personality_v0
	.cfi_lsda 0x1b,.LLSDA1477
	pushq	%rbp
	.cfi_def_cfa_offset 16
	.cfi_offset 6, -16
	movq	%rsp, %rbp
	.cfi_def_cfa_register 6
	pushq	%rbx
	subq	$40, %rsp
	.cfi_offset 3, -24
	movq	%rdi, -40(%rbp)
	movq	%rsi, -48(%rbp)
	leaq	-17(%rbp), %rax
	movq	%rax, %rdi
	call	_ZNSaIcEC1Ev@PLT
	movq	-48(%rbp), %rax
	movl	$10, %esi
	movq	%rax, %rdi
	call	_ZNSt8__detail14__to_chars_lenImEEjT_i
	movl	%eax, %esi
	leaq	-17(%rbp), %rdx
	movq	-40(%rbp), %rax
	movq	%rdx, %rcx
	movl	$0, %edx
	movq	%rax, %rdi
.LEHB0:
	call	_ZNSt7__cxx1112basic_stringIcSt11char_traitsIcESaIcEEC1IS3_EEmcRKS3_
.LEHE0:
	leaq	-17(%rbp), %rax
	movq	%rax, %rdi
	call	_ZNSaIcED1Ev@PLT
	movq	-40(%rbp), %rax
	movq	%rax, %rdi
	call	_ZNKSt7__cxx1112basic_stringIcSt11char_traitsIcESaIcEE4sizeEv@PLT
	movl	%eax, %ebx
	movq	-40(%rbp), %rax
	movl	$0, %esi
	movq	%rax, %rdi
.LEHB1:
	call	_ZNSt7__cxx1112basic_stringIcSt11char_traitsIcESaIcEEixEm@PLT
.LEHE1:
	movq	%rax, %rcx
	movq	-48(%rbp), %rax
	movq	%rax, %rdx
	movl	%ebx, %esi
	movq	%rcx, %rdi
	call	_ZNSt8__detail18__to_chars_10_implImEEvPcjT_
	jmp	.L55
.L53:
	movq	%rax, %rbx
	leaq	-17(%rbp), %rax
	movq	%rax, %rdi
	call	_ZNSaIcED1Ev@PLT
	movq	%rbx, %rax
	movq	%rax, %rdi
.LEHB2:
	call	_Unwind_Resume@PLT
.L54:
	movq	%rax, %rbx
	movq	-40(%rbp), %rax
	movq	%rax, %rdi
	call	_ZNSt7__cxx1112basic_stringIcSt11char_traitsIcESaIcEED1Ev@PLT
	movq	%rbx, %rax
	movq	%rax, %rdi
	call	_Unwind_Resume@PLT
.LEHE2:
.L55:
	movq	-40(%rbp), %rax
	movq	-8(%rbp), %rbx
	leave
	.cfi_def_cfa 7, 8
	ret
	.cfi_endproc
.LFE1477:
	.section	.gcc_except_table._ZNSt7__cxx119to_stringEm,"aG",@progbits,_ZNSt7__cxx119to_stringEm,comdat
.LLSDA1477:
	.byte	0xff
	.byte	0xff
	.byte	0x1
	.uleb128 .LLSDACSE1477-.LLSDACSB1477
.LLSDACSB1477:
	.uleb128 .LEHB0-.LFB1477
	.uleb128 .LEHE0-.LEHB0
	.uleb128 .L53-.LFB1477
	.uleb128 0
	.uleb128 .LEHB1-.LFB1477
	.uleb128 .LEHE1-.LEHB1
	.uleb128 .L54-.LFB1477
	.uleb128 0
	.uleb128 .LEHB2-.LFB1477
	.uleb128 .LEHE2-.LEHB2
	.uleb128 0
	.uleb128 0
.LLSDACSE1477:
	.section	.text._ZNSt7__cxx119to_stringEm,"axG",@progbits,_ZNSt7__cxx119to_stringEm,comdat
	.size	_ZNSt7__cxx119to_stringEm, .-_ZNSt7__cxx119to_stringEm
	.section	.text._ZNSt7__cxx119to_stringEx,"axG",@progbits,_ZNSt7__cxx119to_stringEx,comdat
	.weak	_ZNSt7__cxx119to_stringEx
	.type	_ZNSt7__cxx119to_stringEx, @function
_ZNSt7__cxx119to_stringEx:
.LFB1478:
	.cfi_startproc
	.cfi_personality 0x9b,DW.ref.__gxx_personality_v0
	.cfi_lsda 0x1b,.LLSDA1478
	pushq	%rbp
	.cfi_def_cfa_offset 16
	.cfi_offset 6, -16
	movq	%rsp, %rbp
	.cfi_def_cfa_register 6
	pushq	%rbx
	subq	$56, %rsp
	.cfi_offset 3, -24
	movq	%rdi, -56(%rbp)
	movq	%rsi, -64(%rbp)
	movq	-64(%rbp), %rax
	shrq	$63, %rax
	movb	%al, -17(%rbp)
	cmpb	$0, -17(%rbp)
	je	.L57
	movq	-64(%rbp), %rax
	negq	%rax
	jmp	.L58
.L57:
	movq	-64(%rbp), %rax
.L58:
	movq	%rax, -32(%rbp)
	movq	-32(%rbp), %rax
	movl	$10, %esi
	movq	%rax, %rdi
	call	_ZNSt8__detail14__to_chars_lenIyEEjT_i
	movl	%eax, -36(%rbp)
	leaq	-37(%rbp), %rax
	movq	%rax, %rdi
	call	_ZNSaIcEC1Ev@PLT
	movzbl	-17(%rbp), %edx
	movl	-36(%rbp), %eax
	addl	%edx, %eax
	movl	%eax, %esi
	leaq	-37(%rbp), %rdx
	movq	-56(%rbp), %rax
	movq	%rdx, %rcx
	movl	$45, %edx
	movq	%rax, %rdi
.LEHB3:
	call	_ZNSt7__cxx1112basic_stringIcSt11char_traitsIcESaIcEEC1IS3_EEmcRKS3_
.LEHE3:
	leaq	-37(%rbp), %rax
	movq	%rax, %rdi
	call	_ZNSaIcED1Ev@PLT
	movzbl	-17(%rbp), %edx
	movq	-56(%rbp), %rax
	movq	%rdx, %rsi
	movq	%rax, %rdi
.LEHB4:
	call	_ZNSt7__cxx1112basic_stringIcSt11char_traitsIcESaIcEEixEm@PLT
.LEHE4:
	movq	%rax, %rcx
	movq	-32(%rbp), %rdx
	movl	-36(%rbp), %eax
	movl	%eax, %esi
	movq	%rcx, %rdi
	call	_ZNSt8__detail18__to_chars_10_implIyEEvPcjT_
	jmp	.L64
.L62:
	movq	%rax, %rbx
	leaq	-37(%rbp), %rax
	movq	%rax, %rdi
	call	_ZNSaIcED1Ev@PLT
	movq	%rbx, %rax
	movq	%rax, %rdi
.LEHB5:
	call	_Unwind_Resume@PLT
.L63:
	movq	%rax, %rbx
	movq	-56(%rbp), %rax
	movq	%rax, %rdi
	call	_ZNSt7__cxx1112basic_stringIcSt11char_traitsIcESaIcEED1Ev@PLT
	movq	%rbx, %rax
	movq	%rax, %rdi
	call	_Unwind_Resume@PLT
.LEHE5:
.L64:
	movq	-56(%rbp), %rax
	movq	-8(%rbp), %rbx
	leave
	.cfi_def_cfa 7, 8
	ret
	.cfi_endproc
.LFE1478:
	.section	.gcc_except_table._ZNSt7__cxx119to_stringEx,"aG",@progbits,_ZNSt7__cxx119to_stringEx,comdat
.LLSDA1478:
	.byte	0xff
	.byte	0xff
	.byte	0x1
	.uleb128 .LLSDACSE1478-.LLSDACSB1478
.LLSDACSB1478:
	.uleb128 .LEHB3-.LFB1478
	.uleb128 .LEHE3-.LEHB3
	.uleb128 .L62-.LFB1478
	.uleb128 0
	.uleb128 .LEHB4-.LFB1478
	.uleb128 .LEHE4-.LEHB4
	.uleb128 .L63-.LFB1478
	.uleb128 0
	.uleb128 .LEHB5-.LFB1478
	.uleb128 .LEHE5-.LEHB5
	.uleb128 0
	.uleb128 0
.LLSDACSE1478:
	.section	.text._ZNSt7__cxx119to_stringEx,"axG",@progbits,_ZNSt7__cxx119to_stringEx,comdat
	.size	_ZNSt7__cxx119to_stringEx, .-_ZNSt7__cxx119to_stringEx
	.section	.rodata
.LC0:
	.string	"%f"
	.section	.text._ZNSt7__cxx119to_stringEf,"axG",@progbits,_ZNSt7__cxx119to_stringEf,comdat
	.weak	_ZNSt7__cxx119to_stringEf
	.type	_ZNSt7__cxx119to_stringEf, @function
_ZNSt7__cxx119to_stringEf:
.LFB1480:
	.cfi_startproc
	pushq	%rbp
	.cfi_def_cfa_offset 16
	.cfi_offset 6, -16
	movq	%rsp, %rbp
	.cfi_def_cfa_register 6
	subq	$32, %rsp
	movq	%rdi, -24(%rbp)
	movss	%xmm0, -28(%rbp)
	movl	$58, -4(%rbp)
	pxor	%xmm1, %xmm1
	cvtss2sd	-28(%rbp), %xmm1
	movq	%xmm1, %rdx
	movq	-24(%rbp), %rax
	movq	%rdx, %xmm0
	leaq	.LC0(%rip), %rdx
	movq	%rdx, %rcx
	movl	$58, %edx
	movq	vsnprintf@GOTPCREL(%rip), %rsi
	movq	%rax, %rdi
	movl	$1, %eax
	call	_ZN9__gnu_cxx12__to_xstringINSt7__cxx1112basic_stringIcSt11char_traitsIcESaIcEEEcEET_PFiPT0_mPKS8_P13__va_list_tagEmSB_z
	movq	-24(%rbp), %rax
	leave
	.cfi_def_cfa 7, 8
	ret
	.cfi_endproc
.LFE1480:
	.size	_ZNSt7__cxx119to_stringEf, .-_ZNSt7__cxx119to_stringEf
	.section	.text._ZNSt7__cxx119to_stringEd,"axG",@progbits,_ZNSt7__cxx119to_stringEd,comdat
	.weak	_ZNSt7__cxx119to_stringEd
	.type	_ZNSt7__cxx119to_stringEd, @function
_ZNSt7__cxx119to_stringEd:
.LFB1481:
	.cfi_startproc
	pushq	%rbp
	.cfi_def_cfa_offset 16
	.cfi_offset 6, -16
	movq	%rsp, %rbp
	.cfi_def_cfa_register 6
	subq	$32, %rsp
	movq	%rdi, -24(%rbp)
	movsd	%xmm0, -32(%rbp)
	movl	$328, -4(%rbp)
	movq	-24(%rbp), %rax
	movq	-32(%rbp), %rdx
	movq	%rdx, %xmm0
	leaq	.LC0(%rip), %rdx
	movq	%rdx, %rcx
	movl	$328, %edx
	movq	vsnprintf@GOTPCREL(%rip), %rsi
	movq	%rax, %rdi
	movl	$1, %eax
	call	_ZN9__gnu_cxx12__to_xstringINSt7__cxx1112basic_stringIcSt11char_traitsIcESaIcEEEcEET_PFiPT0_mPKS8_P13__va_list_tagEmSB_z
	movq	-24(%rbp), %rax
	leave
	.cfi_def_cfa 7, 8
	ret
	.cfi_endproc
.LFE1481:
	.size	_ZNSt7__cxx119to_stringEd, .-_ZNSt7__cxx119to_stringEd
	.section	.text._ZStanSt13_Ios_FmtflagsS_,"axG",@progbits,_ZStanSt13_Ios_FmtflagsS_,comdat
	.weak	_ZStanSt13_Ios_FmtflagsS_
	.type	_ZStanSt13_Ios_FmtflagsS_, @function
_ZStanSt13_Ios_FmtflagsS_:
.LFB1652:
	.cfi_startproc
	pushq	%rbp
	.cfi_def_cfa_offset 16
	.cfi_offset 6, -16
	movq	%rsp, %rbp
	.cfi_def_cfa_register 6
	movl	%edi, -4(%rbp)
	movl	%esi, -8(%rbp)
	movl	-4(%rbp), %eax
	andl	-8(%rbp), %eax
	popq	%rbp
	.cfi_def_cfa 7, 8
	ret
	.cfi_endproc
.LFE1652:
	.size	_ZStanSt13_Ios_FmtflagsS_, .-_ZStanSt13_Ios_FmtflagsS_
	.section	.text._ZStorSt13_Ios_FmtflagsS_,"axG",@progbits,_ZStorSt13_Ios_FmtflagsS_,comdat
	.weak	_ZStorSt13_Ios_FmtflagsS_
	.type	_ZStorSt13_Ios_FmtflagsS_, @function
_ZStorSt13_Ios_FmtflagsS_:
.LFB1653:
	.cfi_startproc
	pushq	%rbp
	.cfi_def_cfa_offset 16
	.cfi_offset 6, -16
	movq	%rsp, %rbp
	.cfi_def_cfa_register 6
	movl	%edi, -4(%rbp)
	movl	%esi, -8(%rbp)
	movl	-4(%rbp), %eax
	orl	-8(%rbp), %eax
	popq	%rbp
	.cfi_def_cfa 7, 8
	ret
	.cfi_endproc
.LFE1653:
	.size	_ZStorSt13_Ios_FmtflagsS_, .-_ZStorSt13_Ios_FmtflagsS_
	.section	.text._ZStcoSt13_Ios_Fmtflags,"axG",@progbits,_ZStcoSt13_Ios_Fmtflags,comdat
	.weak	_ZStcoSt13_Ios_Fmtflags
	.type	_ZStcoSt13_Ios_Fmtflags, @function
_ZStcoSt13_Ios_Fmtflags:
.LFB1655:
	.cfi_startproc
	pushq	%rbp
	.cfi_def_cfa_offset 16
	.cfi_offset 6, -16
	movq	%rsp, %rbp
	.cfi_def_cfa_register 6
	movl	%edi, -4(%rbp)
	movl	-4(%rbp), %eax
	notl	%eax
	popq	%rbp
	.cfi_def_cfa 7, 8
	ret
	.cfi_endproc
.LFE1655:
	.size	_ZStcoSt13_Ios_Fmtflags, .-_ZStcoSt13_Ios_Fmtflags
	.section	.text._ZStoRRSt13_Ios_FmtflagsS_,"axG",@progbits,_ZStoRRSt13_Ios_FmtflagsS_,comdat
	.weak	_ZStoRRSt13_Ios_FmtflagsS_
	.type	_ZStoRRSt13_Ios_FmtflagsS_, @function
_ZStoRRSt13_Ios_FmtflagsS_:
.LFB1656:
	.cfi_startproc
	pushq	%rbp
	.cfi_def_cfa_offset 16
	.cfi_offset 6, -16
	movq	%rsp, %rbp
	.cfi_def_cfa_register 6
	subq	$16, %rsp
	movq	%rdi, -8(%rbp)
	movl	%esi, -12(%rbp)
	movq	-8(%rbp), %rax
	movl	(%rax), %eax
	movl	-12(%rbp), %edx
	movl	%edx, %esi
	movl	%eax, %edi
	call	_ZStorSt13_Ios_FmtflagsS_
	movq	-8(%rbp), %rdx
	movl	%eax, (%rdx)
	movq	-8(%rbp), %rax
	leave
	.cfi_def_cfa 7, 8
	ret
	.cfi_endproc
.LFE1656:
	.size	_ZStoRRSt13_Ios_FmtflagsS_, .-_ZStoRRSt13_Ios_FmtflagsS_
	.section	.text._ZStaNRSt13_Ios_FmtflagsS_,"axG",@progbits,_ZStaNRSt13_Ios_FmtflagsS_,comdat
	.weak	_ZStaNRSt13_Ios_FmtflagsS_
	.type	_ZStaNRSt13_Ios_FmtflagsS_, @function
_ZStaNRSt13_Ios_FmtflagsS_:
.LFB1657:
	.cfi_startproc
	pushq	%rbp
	.cfi_def_cfa_offset 16
	.cfi_offset 6, -16
	movq	%rsp, %rbp
	.cfi_def_cfa_register 6
	subq	$16, %rsp
	movq	%rdi, -8(%rbp)
	movl	%esi, -12(%rbp)
	movq	-8(%rbp), %rax
	movl	(%rax), %eax
	movl	-12(%rbp), %edx
	movl	%edx, %esi
	movl	%eax, %edi
	call	_ZStanSt13_Ios_FmtflagsS_
	movq	-8(%rbp), %rdx
	movl	%eax, (%rdx)
	movq	-8(%rbp), %rax
	leave
	.cfi_def_cfa 7, 8
	ret
	.cfi_endproc
.LFE1657:
	.size	_ZStaNRSt13_Ios_FmtflagsS_, .-_ZStaNRSt13_Ios_FmtflagsS_
	.section	.text._ZNSt8ios_base4setfESt13_Ios_FmtflagsS0_,"axG",@progbits,_ZNSt8ios_base4setfESt13_Ios_FmtflagsS0_,comdat
	.align 2
	.weak	_ZNSt8ios_base4setfESt13_Ios_FmtflagsS0_
	.type	_ZNSt8ios_base4setfESt13_Ios_FmtflagsS0_, @function
_ZNSt8ios_base4setfESt13_Ios_FmtflagsS0_:
.LFB1686:
	.cfi_startproc
	pushq	%rbp
	.cfi_def_cfa_offset 16
	.cfi_offset 6, -16
	movq	%rsp, %rbp
	.cfi_def_cfa_register 6
	subq	$32, %rsp
	movq	%rdi, -24(%rbp)
	movl	%esi, -28(%rbp)
	movl	%edx, -32(%rbp)
	movq	-24(%rbp), %rax
	movl	24(%rax), %eax
	movl	%eax, -4(%rbp)
	movl	-32(%rbp), %eax
	movl	%eax, %edi
	call	_ZStcoSt13_Ios_Fmtflags
	movl	%eax, %edx
	movq	-24(%rbp), %rax
	addq	$24, %rax
	movl	%edx, %esi
	movq	%rax, %rdi
	call	_ZStaNRSt13_Ios_FmtflagsS_
	movl	-32(%rbp), %edx
	movl	-28(%rbp), %eax
	movl	%edx, %esi
	movl	%eax, %edi
	call	_ZStanSt13_Ios_FmtflagsS_
	movl	%eax, %edx
	movq	-24(%rbp), %rax
	addq	$24, %rax
	movl	%edx, %esi
	movq	%rax, %rdi
	call	_ZStoRRSt13_Ios_FmtflagsS_
	movl	-4(%rbp), %eax
	leave
	.cfi_def_cfa 7, 8
	ret
	.cfi_endproc
.LFE1686:
	.size	_ZNSt8ios_base4setfESt13_Ios_FmtflagsS0_, .-_ZNSt8ios_base4setfESt13_Ios_FmtflagsS0_
	.section	.text._ZSt3hexRSt8ios_base,"axG",@progbits,_ZSt3hexRSt8ios_base,comdat
	.weak	_ZSt3hexRSt8ios_base
	.type	_ZSt3hexRSt8ios_base, @function
_ZSt3hexRSt8ios_base:
.LFB1714:
	.cfi_startproc
	pushq	%rbp
	.cfi_def_cfa_offset 16
	.cfi_offset 6, -16
	movq	%rsp, %rbp
	.cfi_def_cfa_register 6
	subq	$16, %rsp
	movq	%rdi, -8(%rbp)
	movq	-8(%rbp), %rax
	movl	$74, %edx
	movl	$8, %esi
	movq	%rax, %rdi
	call	_ZNSt8ios_base4setfESt13_Ios_FmtflagsS0_
	movq	-8(%rbp), %rax
	leave
	.cfi_def_cfa 7, 8
	ret
	.cfi_endproc
.LFE1714:
	.size	_ZSt3hexRSt8ios_base, .-_ZSt3hexRSt8ios_base
	.section	.text._ZSt3octRSt8ios_base,"axG",@progbits,_ZSt3octRSt8ios_base,comdat
	.weak	_ZSt3octRSt8ios_base
	.type	_ZSt3octRSt8ios_base, @function
_ZSt3octRSt8ios_base:
.LFB1715:
	.cfi_startproc
	pushq	%rbp
	.cfi_def_cfa_offset 16
	.cfi_offset 6, -16
	movq	%rsp, %rbp
	.cfi_def_cfa_register 6
	subq	$16, %rsp
	movq	%rdi, -8(%rbp)
	movq	-8(%rbp), %rax
	movl	$74, %edx
	movl	$64, %esi
	movq	%rax, %rdi
	call	_ZNSt8ios_base4setfESt13_Ios_FmtflagsS0_
	movq	-8(%rbp), %rax
	leave
	.cfi_def_cfa 7, 8
	ret
	.cfi_endproc
.LFE1715:
	.size	_ZSt3octRSt8ios_base, .-_ZSt3octRSt8ios_base
	.section	.text._ZNKSt5ctypeIcE7toupperEc,"axG",@progbits,_ZNKSt5ctypeIcE7toupperEc,comdat
	.align 2
	.weak	_ZNKSt5ctypeIcE7toupperEc
	.type	_ZNKSt5ctypeIcE7toupperEc, @function
_ZNKSt5ctypeIcE7toupperEc:
.LFB1809:
	.cfi_startproc
	pushq	%rbp
	.cfi_def_cfa_offset 16
	.cfi_offset 6, -16
	movq	%rsp, %rbp
	.cfi_def_cfa_register 6
	subq	$16, %rsp
	movq	%rdi, -8(%rbp)
	movl	%esi, %eax
	movb	%al, -12(%rbp)
	movq	-8(%rbp), %rax
	movq	(%rax), %rax
	addq	$16, %rax
	movq	(%rax), %rcx
	movsbl	-12(%rbp), %edx
	movq	-8(%rbp), %rax
	movl	%edx, %esi
	movq	%rax, %rdi
	call	*%rcx
	leave
	.cfi_def_cfa 7, 8
	ret
	.cfi_endproc
.LFE1809:
	.size	_ZNKSt5ctypeIcE7toupperEc, .-_ZNKSt5ctypeIcE7toupperEc
	.section	.text._ZNKSt5ctypeIcE7tolowerEc,"axG",@progbits,_ZNKSt5ctypeIcE7tolowerEc,comdat
	.align 2
	.weak	_ZNKSt5ctypeIcE7tolowerEc
	.type	_ZNKSt5ctypeIcE7tolowerEc, @function
_ZNKSt5ctypeIcE7tolowerEc:
.LFB1811:
	.cfi_startproc
	pushq	%rbp
	.cfi_def_cfa_offset 16
	.cfi_offset 6, -16
	movq	%rsp, %rbp
	.cfi_def_cfa_register 6
	subq	$16, %rsp
	movq	%rdi, -8(%rbp)
	movl	%esi, %eax
	movb	%al, -12(%rbp)
	movq	-8(%rbp), %rax
	movq	(%rax), %rax
	addq	$32, %rax
	movq	(%rax), %rcx
	movsbl	-12(%rbp), %edx
	movq	-8(%rbp), %rax
	movl	%edx, %esi
	movq	%rax, %rdi
	call	*%rcx
	leave
	.cfi_def_cfa 7, 8
	ret
	.cfi_endproc
.LFE1811:
	.size	_ZNKSt5ctypeIcE7tolowerEc, .-_ZNKSt5ctypeIcE7tolowerEc
	.section	.text._ZNKSt5ctypeIcE7tolowerEPcPKc,"axG",@progbits,_ZNKSt5ctypeIcE7tolowerEPcPKc,comdat
	.align 2
	.weak	_ZNKSt5ctypeIcE7tolowerEPcPKc
	.type	_ZNKSt5ctypeIcE7tolowerEPcPKc, @function
_ZNKSt5ctypeIcE7tolowerEPcPKc:
.LFB1812:
	.cfi_startproc
	pushq	%rbp
	.cfi_def_cfa_offset 16
	.cfi_offset 6, -16
	movq	%rsp, %rbp
	.cfi_def_cfa_register 6
	subq	$32, %rsp
	movq	%rdi, -8(%rbp)
	movq	%rsi, -16(%rbp)
	movq	%rdx, -24(%rbp)
	movq	-8(%rbp), %rax
	movq	(%rax), %rax
	addq	$40, %rax
	movq	(%rax), %r8
	movq	-24(%rbp), %rdx
	movq	-16(%rbp), %rcx
	movq	-8(%rbp), %rax
	movq	%rcx, %rsi
	movq	%rax, %rdi
	call	*%r8
	leave
	.cfi_def_cfa 7, 8
	ret
	.cfi_endproc
.LFE1812:
	.size	_ZNKSt5ctypeIcE7tolowerEPcPKc, .-_ZNKSt5ctypeIcE7tolowerEPcPKc
	.section	.text._ZNKSt5ctypeIcE5widenEc,"axG",@progbits,_ZNKSt5ctypeIcE5widenEc,comdat
	.align 2
	.weak	_ZNKSt5ctypeIcE5widenEc
	.type	_ZNKSt5ctypeIcE5widenEc, @function
_ZNKSt5ctypeIcE5widenEc:
.LFB1813:
	.cfi_startproc
	pushq	%rbp
	.cfi_def_cfa_offset 16
	.cfi_offset 6, -16
	movq	%rsp, %rbp
	.cfi_def_cfa_register 6
	subq	$16, %rsp
	movq	%rdi, -8(%rbp)
	movl	%esi, %eax
	movb	%al, -12(%rbp)
	movq	-8(%rbp), %rax
	movzbl	56(%rax), %eax
	testb	%al, %al
	je	.L92
	movzbl	-12(%rbp), %eax
	movzbl	%al, %eax
	movq	-8(%rbp), %rdx
	cltq
	movzbl	57(%rdx,%rax), %eax
	jmp	.L93
.L92:
	movq	-8(%rbp), %rax
	movq	%rax, %rdi
	call	_ZNKSt5ctypeIcE13_M_widen_initEv@PLT
	movq	-8(%rbp), %rax
	movq	(%rax), %rax
	addq	$48, %rax
	movq	(%rax), %rcx
	movsbl	-12(%rbp), %edx
	movq	-8(%rbp), %rax
	movl	%edx, %esi
	movq	%rax, %rdi
	call	*%rcx
	nop
.L93:
	leave
	.cfi_def_cfa 7, 8
	ret
	.cfi_endproc
.LFE1813:
	.size	_ZNKSt5ctypeIcE5widenEc, .-_ZNKSt5ctypeIcE5widenEc
	.section	.text._ZNKSt5ctypeIcE6narrowEcc,"axG",@progbits,_ZNKSt5ctypeIcE6narrowEcc,comdat
	.align 2
	.weak	_ZNKSt5ctypeIcE6narrowEcc
	.type	_ZNKSt5ctypeIcE6narrowEcc, @function
_ZNKSt5ctypeIcE6narrowEcc:
.LFB1815:
	.cfi_startproc
	pushq	%rbp
	.cfi_def_cfa_offset 16
	.cfi_offset 6, -16
	movq	%rsp, %rbp
	.cfi_def_cfa_register 6
	subq	$32, %rsp
	movq	%rdi, -24(%rbp)
	movl	%esi, %ecx
	movl	%edx, %eax
	movl	%ecx, %edx
	movb	%dl, -28(%rbp)
	movb	%al, -32(%rbp)
	movzbl	-28(%rbp), %eax
	movzbl	%al, %eax
	movq	-24(%rbp), %rdx
	cltq
	movzbl	313(%rdx,%rax), %eax
	testb	%al, %al
	je	.L95
	movzbl	-28(%rbp), %eax
	movzbl	%al, %eax
	movq	-24(%rbp), %rdx
	cltq
	movzbl	313(%rdx,%rax), %eax
	jmp	.L96
.L95:
	movq	-24(%rbp), %rax
	movq	(%rax), %rax
	addq	$64, %rax
	movq	(%rax), %r8
	movsbl	-32(%rbp), %edx
	movsbl	-28(%rbp), %ecx
	movq	-24(%rbp), %rax
	movl	%ecx, %esi
	movq	%rax, %rdi
	call	*%r8
	movb	%al, -1(%rbp)
	movzbl	-1(%rbp), %eax
	cmpb	-32(%rbp), %al
	je	.L97
	movzbl	-28(%rbp), %eax
	movzbl	%al, %eax
	movq	-24(%rbp), %rdx
	cltq
	movzbl	-1(%rbp), %ecx
	movb	%cl, 313(%rdx,%rax)
.L97:
	movzbl	-1(%rbp), %eax
.L96:
	leave
	.cfi_def_cfa 7, 8
	ret
	.cfi_endproc
.LFE1815:
	.size	_ZNKSt5ctypeIcE6narrowEcc, .-_ZNKSt5ctypeIcE6narrowEcc
	.section	.text._ZNKSt5ctypeIcE2isEtc,"axG",@progbits,_ZNKSt5ctypeIcE2isEtc,comdat
	.align 2
	.weak	_ZNKSt5ctypeIcE2isEtc
	.type	_ZNKSt5ctypeIcE2isEtc, @function
_ZNKSt5ctypeIcE2isEtc:
.LFB1824:
	.cfi_startproc
	pushq	%rbp
	.cfi_def_cfa_offset 16
	.cfi_offset 6, -16
	movq	%rsp, %rbp
	.cfi_def_cfa_register 6
	movq	%rdi, -8(%rbp)
	movl	%esi, %ecx
	movl	%edx, %eax
	movl	%ecx, %edx
	movw	%dx, -12(%rbp)
	movb	%al, -16(%rbp)
	movq	-8(%rbp), %rax
	movq	48(%rax), %rax
	movzbl	-16(%rbp), %edx
	movzbl	%dl, %edx
	addq	%rdx, %rdx
	addq	%rdx, %rax
	movzwl	(%rax), %eax
	andw	-12(%rbp), %ax
	testw	%ax, %ax
	setne	%al
	popq	%rbp
	.cfi_def_cfa 7, 8
	ret
	.cfi_endproc
.LFE1824:
	.size	_ZNKSt5ctypeIcE2isEtc, .-_ZNKSt5ctypeIcE2isEtc
	.local	_ZStL8__ioinit
	.comm	_ZStL8__ioinit,1,1
	.section	.text._ZSt16__deque_buf_sizem,"axG",@progbits,_ZSt16__deque_buf_sizem,comdat
	.weak	_ZSt16__deque_buf_sizem
	.type	_ZSt16__deque_buf_sizem, @function
_ZSt16__deque_buf_sizem:
.LFB2645:
	.cfi_startproc
	pushq	%rbp
	.cfi_def_cfa_offset 16
	.cfi_offset 6, -16
	movq	%rsp, %rbp
	.cfi_def_cfa_register 6
	movq	%rdi, -8(%rbp)
	cmpq	$511, -8(%rbp)
	ja	.L101
	movl	$512, %eax
	movl	$0, %edx
	divq	-8(%rbp)
	jmp	.L103
.L101:
	movl	$1, %eax
.L103:
	popq	%rbp
	.cfi_def_cfa 7, 8
	ret
	.cfi_endproc
.LFE2645:
	.size	_ZSt16__deque_buf_sizem, .-_ZSt16__deque_buf_sizem
	.section	.rodata
	.align 4
	.type	_ZN9__gnu_cxxL21__default_lock_policyE, @object
	.size	_ZN9__gnu_cxxL21__default_lock_policyE, 4
_ZN9__gnu_cxxL21__default_lock_policyE:
	.long	2
	.section	.text._ZNSt16_Sp_counted_baseILN9__gnu_cxx12_Lock_policyE2EE10_M_releaseEv,"axG",@progbits,_ZNSt16_Sp_counted_baseILN9__gnu_cxx12_Lock_policyE2EE10_M_releaseEv,comdat
	.align 2
	.weak	_ZNSt16_Sp_counted_baseILN9__gnu_cxx12_Lock_policyE2EE10_M_releaseEv
	.type	_ZNSt16_Sp_counted_baseILN9__gnu_cxx12_Lock_policyE2EE10_M_releaseEv, @function
_ZNSt16_Sp_counted_baseILN9__gnu_cxx12_Lock_policyE2EE10_M_releaseEv:
.LFB3194:
	.cfi_startproc
	pushq	%rbp
	.cfi_def_cfa_offset 16
	.cfi_offset 6, -16
	movq	%rsp, %rbp
	.cfi_def_cfa_register 6
	subq	$96, %rsp
	movq	%rdi, -88(%rbp)
	movb	$1, -1(%rbp)
	movb	$1, -2(%rbp)
	movb	$1, -3(%rbp)
	movl	$32, -8(%rbp)
	movl	$32, -12(%rbp)
	movabsq	$4294967297, %rax
	movq	%rax, -24(%rbp)
	movq	-88(%rbp), %rax
	addq	$8, %rax
	movq	%rax, -32(%rbp)
	movq	-32(%rbp), %rax
	movq	(%rax), %rdx
	movabsq	$4294967297, %rax
	cmpq	%rax, %rdx
	sete	%al
	testb	%al, %al
	je	.L105
	movq	-88(%rbp), %rax
	movl	$0, 8(%rax)
	movq	-88(%rbp), %rax
	movl	8(%rax), %edx
	movq	-88(%rbp), %rax
	movl	%edx, 12(%rax)
	movq	-88(%rbp), %rax
	movq	(%rax), %rax
	addq	$16, %rax
	movq	(%rax), %rdx
	movq	-88(%rbp), %rax
	movq	%rax, %rdi
	call	*%rdx
	movq	-88(%rbp), %rax
	movq	(%rax), %rax
	addq	$24, %rax
	movq	(%rax), %rdx
	movq	-88(%rbp), %rax
	movq	%rax, %rdi
	call	*%rdx
	jmp	.L104
.L105:
	movq	-88(%rbp), %rax
	addq	$8, %rax
	movq	%rax, -40(%rbp)
	movl	$-1, -44(%rbp)
	movzbl	__libc_single_threaded(%rip), %eax
	testb	%al, %al
	setne	%al
	testb	%al, %al
	je	.L108
	movq	-40(%rbp), %rax
	movq	%rax, -56(%rbp)
	movl	-44(%rbp), %eax
	movl	%eax, -60(%rbp)
	movq	-56(%rbp), %rax
	movl	(%rax), %eax
	movl	%eax, -64(%rbp)
	movq	-56(%rbp), %rax
	movl	(%rax), %edx
	movl	-60(%rbp), %eax
	addl	%eax, %edx
	movq	-56(%rbp), %rax
	movl	%edx, (%rax)
	movl	-64(%rbp), %eax
	jmp	.L110
.L108:
	movq	-40(%rbp), %rax
	movq	%rax, -72(%rbp)
	movl	-44(%rbp), %eax
	movl	%eax, -76(%rbp)
	movl	-76(%rbp), %edx
	movq	-72(%rbp), %rax
	lock xaddl	%edx, (%rax)
	movl	%edx, %eax
	nop
.L110:
	cmpl	$1, %eax
	sete	%al
	testb	%al, %al
	je	.L104
	movq	-88(%rbp), %rax
	movq	%rax, %rdi
	call	_ZNSt16_Sp_counted_baseILN9__gnu_cxx12_Lock_policyE2EE24_M_release_last_use_coldEv
	nop
.L104:
	leave
	.cfi_def_cfa 7, 8
	ret
	.cfi_endproc
.LFE3194:
	.size	_ZNSt16_Sp_counted_baseILN9__gnu_cxx12_Lock_policyE2EE10_M_releaseEv, .-_ZNSt16_Sp_counted_baseILN9__gnu_cxx12_Lock_policyE2EE10_M_releaseEv
	.weak	_ZZNSt19_Sp_make_shared_tag5_S_tiEvE5__tag
	.section	.rodata._ZZNSt19_Sp_make_shared_tag5_S_tiEvE5__tag,"aG",@progbits,_ZZNSt19_Sp_make_shared_tag5_S_tiEvE5__tag,comdat
	.align 8
	.type	_ZZNSt19_Sp_make_shared_tag5_S_tiEvE5__tag, @gnu_unique_object
	.size	_ZZNSt19_Sp_make_shared_tag5_S_tiEvE5__tag, 16
_ZZNSt19_Sp_make_shared_tag5_S_tiEvE5__tag:
	.zero	16
	.section	.text._ZNSt19_Sp_make_shared_tag5_S_tiEv,"axG",@progbits,_ZNSt19_Sp_make_shared_tag5_S_tiEv,comdat
	.weak	_ZNSt19_Sp_make_shared_tag5_S_tiEv
	.type	_ZNSt19_Sp_make_shared_tag5_S_tiEv, @function
_ZNSt19_Sp_make_shared_tag5_S_tiEv:
.LFB3220:
	.cfi_startproc
	pushq	%rbp
	.cfi_def_cfa_offset 16
	.cfi_offset 6, -16
	movq	%rsp, %rbp
	.cfi_def_cfa_register 6
	leaq	_ZZNSt19_Sp_make_shared_tag5_S_tiEvE5__tag(%rip), %rax
	popq	%rbp
	.cfi_def_cfa 7, 8
	ret
	.cfi_endproc
.LFE3220:
	.size	_ZNSt19_Sp_make_shared_tag5_S_tiEv, .-_ZNSt19_Sp_make_shared_tag5_S_tiEv
	.section	.text._ZNSt9_Any_data9_M_accessEv,"axG",@progbits,_ZNSt9_Any_data9_M_accessEv,comdat
	.align 2
	.weak	_ZNSt9_Any_data9_M_accessEv
	.type	_ZNSt9_Any_data9_M_accessEv, @function
_ZNSt9_Any_data9_M_accessEv:
.LFB3429:
	.cfi_startproc
	pushq	%rbp
	.cfi_def_cfa_offset 16
	.cfi_offset 6, -16
	movq	%rsp, %rbp
	.cfi_def_cfa_register 6
	movq	%rdi, -8(%rbp)
	movq	-8(%rbp), %rax
	popq	%rbp
	.cfi_def_cfa 7, 8
	ret
	.cfi_endproc
.LFE3429:
	.size	_ZNSt9_Any_data9_M_accessEv, .-_ZNSt9_Any_data9_M_accessEv
	.section	.text._ZNKSt9_Any_data9_M_accessEv,"axG",@progbits,_ZNKSt9_Any_data9_M_accessEv,comdat
	.align 2
	.weak	_ZNKSt9_Any_data9_M_accessEv
	.type	_ZNKSt9_Any_data9_M_accessEv, @function
_ZNKSt9_Any_data9_M_accessEv:
.LFB3430:
	.cfi_startproc
	pushq	%rbp
	.cfi_def_cfa_offset 16
	.cfi_offset 6, -16
	movq	%rsp, %rbp
	.cfi_def_cfa_register 6
	movq	%rdi, -8(%rbp)
	movq	-8(%rbp), %rax
	popq	%rbp
	.cfi_def_cfa 7, 8
	ret
	.cfi_endproc
.LFE3430:
	.size	_ZNKSt9_Any_data9_M_accessEv, .-_ZNKSt9_Any_data9_M_accessEv
	.section	.text._ZNSt14_Function_baseD2Ev,"axG",@progbits,_ZNSt14_Function_baseD5Ev,comdat
	.align 2
	.weak	_ZNSt14_Function_baseD2Ev
	.type	_ZNSt14_Function_baseD2Ev, @function
_ZNSt14_Function_baseD2Ev:
.LFB3445:
	.cfi_startproc
	.cfi_personality 0x9b,DW.ref.__gxx_personality_v0
	.cfi_lsda 0x1b,.LLSDA3445
	pushq	%rbp
	.cfi_def_cfa_offset 16
	.cfi_offset 6, -16
	movq	%rsp, %rbp
	.cfi_def_cfa_register 6
	subq	$16, %rsp
	movq	%rdi, -8(%rbp)
	movq	-8(%rbp), %rax
	movq	16(%rax), %rax
	testq	%rax, %rax
	je	.L120
	movq	-8(%rbp), %rax
	movq	16(%rax), %r8
	movq	-8(%rbp), %rcx
	movq	-8(%rbp), %rax
	movl	$3, %edx
	movq	%rcx, %rsi
	movq	%rax, %rdi
	call	*%r8
.L120:
	nop
	leave
	.cfi_def_cfa 7, 8
	ret
	.cfi_endproc
.LFE3445:
	.section	.gcc_except_table._ZNSt14_Function_baseD2Ev,"aG",@progbits,_ZNSt14_Function_baseD5Ev,comdat
.LLSDA3445:
	.byte	0xff
	.byte	0xff
	.byte	0x1
	.uleb128 .LLSDACSE3445-.LLSDACSB3445
.LLSDACSB3445:
.LLSDACSE3445:
	.section	.text._ZNSt14_Function_baseD2Ev,"axG",@progbits,_ZNSt14_Function_baseD5Ev,comdat
	.size	_ZNSt14_Function_baseD2Ev, .-_ZNSt14_Function_baseD2Ev
	.weak	_ZNSt14_Function_baseD1Ev
	.set	_ZNSt14_Function_baseD1Ev,_ZNSt14_Function_baseD2Ev
	.section	.text._ZNKSt14_Function_base8_M_emptyEv,"axG",@progbits,_ZNKSt14_Function_base8_M_emptyEv,comdat
	.align 2
	.weak	_ZNKSt14_Function_base8_M_emptyEv
	.type	_ZNKSt14_Function_base8_M_emptyEv, @function
_ZNKSt14_Function_base8_M_emptyEv:
.LFB3447:
	.cfi_startproc
	pushq	%rbp
	.cfi_def_cfa_offset 16
	.cfi_offset 6, -16
	movq	%rsp, %rbp
	.cfi_def_cfa_register 6
	movq	%rdi, -8(%rbp)
	movq	-8(%rbp), %rax
	movq	16(%rax), %rax
	testq	%rax, %rax
	sete	%al
	popq	%rbp
	.cfi_def_cfa 7, 8
	ret
	.cfi_endproc
.LFE3447:
	.size	_ZNKSt14_Function_base8_M_emptyEv, .-_ZNKSt14_Function_base8_M_emptyEv
	.section	.text._ZNSt15_Rb_tree_headerC2Ev,"axG",@progbits,_ZNSt15_Rb_tree_headerC5Ev,comdat
	.align 2
	.weak	_ZNSt15_Rb_tree_headerC2Ev
	.type	_ZNSt15_Rb_tree_headerC2Ev, @function
_ZNSt15_Rb_tree_headerC2Ev:
.LFB3513:
	.cfi_startproc
	pushq	%rbp
	.cfi_def_cfa_offset 16
	.cfi_offset 6, -16
	movq	%rsp, %rbp
	.cfi_def_cfa_register 6
	subq	$16, %rsp
	movq	%rdi, -8(%rbp)
	movq	-8(%rbp), %rax
	movl	$0, (%rax)
	movq	-8(%rbp), %rax
	movq	%rax, %rdi
	call	_ZNSt15_Rb_tree_header8_M_resetEv
	nop
	leave
	.cfi_def_cfa 7, 8
	ret
	.cfi_endproc
.LFE3513:
	.size	_ZNSt15_Rb_tree_headerC2Ev, .-_ZNSt15_Rb_tree_headerC2Ev
	.weak	_ZNSt15_Rb_tree_headerC1Ev
	.set	_ZNSt15_Rb_tree_headerC1Ev,_ZNSt15_Rb_tree_headerC2Ev
	.section	.text._ZNSt15_Rb_tree_header8_M_resetEv,"axG",@progbits,_ZNSt15_Rb_tree_header8_M_resetEv,comdat
	.align 2
	.weak	_ZNSt15_Rb_tree_header8_M_resetEv
	.type	_ZNSt15_Rb_tree_header8_M_resetEv, @function
_ZNSt15_Rb_tree_header8_M_resetEv:
.LFB3519:
	.cfi_startproc
	pushq	%rbp
	.cfi_def_cfa_offset 16
	.cfi_offset 6, -16
	movq	%rsp, %rbp
	.cfi_def_cfa_register 6
	movq	%rdi, -8(%rbp)
	movq	-8(%rbp), %rax
	movq	$0, 8(%rax)
	movq	-8(%rbp), %rdx
	movq	-8(%rbp), %rax
	movq	%rdx, 16(%rax)
	movq	-8(%rbp), %rdx
	movq	-8(%rbp), %rax
	movq	%rdx, 24(%rax)
	movq	-8(%rbp), %rax
	movq	$0, 32(%rax)
	nop
	popq	%rbp
	.cfi_def_cfa 7, 8
	ret
	.cfi_endproc
.LFE3519:
	.size	_ZNSt15_Rb_tree_header8_M_resetEv, .-_ZNSt15_Rb_tree_header8_M_resetEv
	.section	.text._ZNSt15regex_constantsanENS_18syntax_option_typeES0_,"axG",@progbits,_ZNSt15regex_constantsanENS_18syntax_option_typeES0_,comdat
	.weak	_ZNSt15regex_constantsanENS_18syntax_option_typeES0_
	.type	_ZNSt15regex_constantsanENS_18syntax_option_typeES0_, @function
_ZNSt15regex_constantsanENS_18syntax_option_typeES0_:
.LFB4091:
	.cfi_startproc
	pushq	%rbp
	.cfi_def_cfa_offset 16
	.cfi_offset 6, -16
	movq	%rsp, %rbp
	.cfi_def_cfa_register 6
	movl	%edi, -4(%rbp)
	movl	%esi, -8(%rbp)
	movl	-4(%rbp), %eax
	andl	-8(%rbp), %eax
	popq	%rbp
	.cfi_def_cfa 7, 8
	ret
	.cfi_endproc
.LFE4091:
	.size	_ZNSt15regex_constantsanENS_18syntax_option_typeES0_, .-_ZNSt15regex_constantsanENS_18syntax_option_typeES0_
	.section	.text._ZNSt15regex_constantsorENS_18syntax_option_typeES0_,"axG",@progbits,_ZNSt15regex_constantsorENS_18syntax_option_typeES0_,comdat
	.weak	_ZNSt15regex_constantsorENS_18syntax_option_typeES0_
	.type	_ZNSt15regex_constantsorENS_18syntax_option_typeES0_, @function
_ZNSt15regex_constantsorENS_18syntax_option_typeES0_:
.LFB4092:
	.cfi_startproc
	pushq	%rbp
	.cfi_def_cfa_offset 16
	.cfi_offset 6, -16
	movq	%rsp, %rbp
	.cfi_def_cfa_register 6
	movl	%edi, -4(%rbp)
	movl	%esi, -8(%rbp)
	movl	-4(%rbp), %eax
	orl	-8(%rbp), %eax
	popq	%rbp
	.cfi_def_cfa 7, 8
	ret
	.cfi_endproc
.LFE4092:
	.size	_ZNSt15regex_constantsorENS_18syntax_option_typeES0_, .-_ZNSt15regex_constantsorENS_18syntax_option_typeES0_
	.section	.text._ZNSt15regex_constantsanENS_15match_flag_typeES0_,"axG",@progbits,_ZNSt15regex_constantsanENS_15match_flag_typeES0_,comdat
	.weak	_ZNSt15regex_constantsanENS_15match_flag_typeES0_
	.type	_ZNSt15regex_constantsanENS_15match_flag_typeES0_, @function
_ZNSt15regex_constantsanENS_15match_flag_typeES0_:
.LFB4098:
	.cfi_startproc
	pushq	%rbp
	.cfi_def_cfa_offset 16
	.cfi_offset 6, -16
	movq	%rsp, %rbp
	.cfi_def_cfa_register 6
	movl	%edi, -4(%rbp)
	movl	%esi, -8(%rbp)
	movl	-4(%rbp), %eax
	andl	-8(%rbp), %eax
	popq	%rbp
	.cfi_def_cfa 7, 8
	ret
	.cfi_endproc
.LFE4098:
	.size	_ZNSt15regex_constantsanENS_15match_flag_typeES0_, .-_ZNSt15regex_constantsanENS_15match_flag_typeES0_
	.section	.text._ZNSt15regex_constantsorENS_15match_flag_typeES0_,"axG",@progbits,_ZNSt15regex_constantsorENS_15match_flag_typeES0_,comdat
	.weak	_ZNSt15regex_constantsorENS_15match_flag_typeES0_
	.type	_ZNSt15regex_constantsorENS_15match_flag_typeES0_, @function
_ZNSt15regex_constantsorENS_15match_flag_typeES0_:
.LFB4099:
	.cfi_startproc
	pushq	%rbp
	.cfi_def_cfa_offset 16
	.cfi_offset 6, -16
	movq	%rsp, %rbp
	.cfi_def_cfa_register 6
	movl	%edi, -4(%rbp)
	movl	%esi, -8(%rbp)
	movl	-4(%rbp), %eax
	orl	-8(%rbp), %eax
	popq	%rbp
	.cfi_def_cfa 7, 8
	ret
	.cfi_endproc
.LFE4099:
	.size	_ZNSt15regex_constantsorENS_15match_flag_typeES0_, .-_ZNSt15regex_constantsorENS_15match_flag_typeES0_
	.section	.text._ZNSt15regex_constantscoENS_15match_flag_typeE,"axG",@progbits,_ZNSt15regex_constantscoENS_15match_flag_typeE,comdat
	.weak	_ZNSt15regex_constantscoENS_15match_flag_typeE
	.type	_ZNSt15regex_constantscoENS_15match_flag_typeE, @function
_ZNSt15regex_constantscoENS_15match_flag_typeE:
.LFB4101:
	.cfi_startproc
	pushq	%rbp
	.cfi_def_cfa_offset 16
	.cfi_offset 6, -16
	movq	%rsp, %rbp
	.cfi_def_cfa_register 6
	movl	%edi, -4(%rbp)
	movl	-4(%rbp), %eax
	notl	%eax
	popq	%rbp
	.cfi_def_cfa 7, 8
	ret
	.cfi_endproc
.LFE4101:
	.size	_ZNSt15regex_constantscoENS_15match_flag_typeE, .-_ZNSt15regex_constantscoENS_15match_flag_typeE
	.section	.text._ZNSt15regex_constantsaNERNS_15match_flag_typeES0_,"axG",@progbits,_ZNSt15regex_constantsaNERNS_15match_flag_typeES0_,comdat
	.weak	_ZNSt15regex_constantsaNERNS_15match_flag_typeES0_
	.type	_ZNSt15regex_constantsaNERNS_15match_flag_typeES0_, @function
_ZNSt15regex_constantsaNERNS_15match_flag_typeES0_:
.LFB4102:
	.cfi_startproc
	pushq	%rbp
	.cfi_def_cfa_offset 16
	.cfi_offset 6, -16
	movq	%rsp, %rbp
	.cfi_def_cfa_register 6
	subq	$16, %rsp
	movq	%rdi, -8(%rbp)
	movl	%esi, -12(%rbp)
	movq	-8(%rbp), %rax
	movl	(%rax), %eax
	movl	-12(%rbp), %edx
	movl	%edx, %esi
	movl	%eax, %edi
	call	_ZNSt15regex_constantsanENS_15match_flag_typeES0_
	movq	-8(%rbp), %rdx
	movl	%eax, (%rdx)
	movq	-8(%rbp), %rax
	leave
	.cfi_def_cfa 7, 8
	ret
	.cfi_endproc
.LFE4102:
	.size	_ZNSt15regex_constantsaNERNS_15match_flag_typeES0_, .-_ZNSt15regex_constantsaNERNS_15match_flag_typeES0_
	.section	.text._ZNSt15regex_constantsoRERNS_15match_flag_typeES0_,"axG",@progbits,_ZNSt15regex_constantsoRERNS_15match_flag_typeES0_,comdat
	.weak	_ZNSt15regex_constantsoRERNS_15match_flag_typeES0_
	.type	_ZNSt15regex_constantsoRERNS_15match_flag_typeES0_, @function
_ZNSt15regex_constantsoRERNS_15match_flag_typeES0_:
.LFB4103:
	.cfi_startproc
	pushq	%rbp
	.cfi_def_cfa_offset 16
	.cfi_offset 6, -16
	movq	%rsp, %rbp
	.cfi_def_cfa_register 6
	subq	$16, %rsp
	movq	%rdi, -8(%rbp)
	movl	%esi, -12(%rbp)
	movq	-8(%rbp), %rax
	movl	(%rax), %eax
	movl	-12(%rbp), %edx
	movl	%edx, %esi
	movl	%eax, %edi
	call	_ZNSt15regex_constantsorENS_15match_flag_typeES0_
	movq	-8(%rbp), %rdx
	movl	%eax, (%rdx)
	movq	-8(%rbp), %rax
	leave
	.cfi_def_cfa 7, 8
	ret
	.cfi_endproc
.LFE4103:
	.size	_ZNSt15regex_constantsoRERNS_15match_flag_typeES0_, .-_ZNSt15regex_constantsoRERNS_15match_flag_typeES0_
	.section	.rodata
	.align 4
	.type	_ZNSt15regex_constantsL13error_collateE, @object
	.size	_ZNSt15regex_constantsL13error_collateE, 4
_ZNSt15regex_constantsL13error_collateE:
	.zero	4
	.align 4
	.type	_ZNSt15regex_constantsL11error_ctypeE, @object
	.size	_ZNSt15regex_constantsL11error_ctypeE, 4
_ZNSt15regex_constantsL11error_ctypeE:
	.long	1
	.align 4
	.type	_ZNSt15regex_constantsL12error_escapeE, @object
	.size	_ZNSt15regex_constantsL12error_escapeE, 4
_ZNSt15regex_constantsL12error_escapeE:
	.long	2
	.align 4
	.type	_ZNSt15regex_constantsL13error_backrefE, @object
	.size	_ZNSt15regex_constantsL13error_backrefE, 4
_ZNSt15regex_constantsL13error_backrefE:
	.long	3
	.align 4
	.type	_ZNSt15regex_constantsL11error_brackE, @object
	.size	_ZNSt15regex_constantsL11error_brackE, 4
_ZNSt15regex_constantsL11error_brackE:
	.long	4
	.align 4
	.type	_ZNSt15regex_constantsL11error_parenE, @object
	.size	_ZNSt15regex_constantsL11error_parenE, 4
_ZNSt15regex_constantsL11error_parenE:
	.long	5
	.align 4
	.type	_ZNSt15regex_constantsL11error_braceE, @object
	.size	_ZNSt15regex_constantsL11error_braceE, 4
_ZNSt15regex_constantsL11error_braceE:
	.long	6
	.align 4
	.type	_ZNSt15regex_constantsL14error_badbraceE, @object
	.size	_ZNSt15regex_constantsL14error_badbraceE, 4
_ZNSt15regex_constantsL14error_badbraceE:
	.long	7
	.align 4
	.type	_ZNSt15regex_constantsL11error_rangeE, @object
	.size	_ZNSt15regex_constantsL11error_rangeE, 4
_ZNSt15regex_constantsL11error_rangeE:
	.long	8
	.align 4
	.type	_ZNSt15regex_constantsL11error_spaceE, @object
	.size	_ZNSt15regex_constantsL11error_spaceE, 4
_ZNSt15regex_constantsL11error_spaceE:
	.long	9
	.align 4
	.type	_ZNSt15regex_constantsL15error_badrepeatE, @object
	.size	_ZNSt15regex_constantsL15error_badrepeatE, 4
_ZNSt15regex_constantsL15error_badrepeatE:
	.long	10
	.align 4
	.type	_ZNSt15regex_constantsL16error_complexityE, @object
	.size	_ZNSt15regex_constantsL16error_complexityE, 4
_ZNSt15regex_constantsL16error_complexityE:
	.long	11
	.align 4
	.type	_ZNSt15regex_constantsL11error_stackE, @object
	.size	_ZNSt15regex_constantsL11error_stackE, 4
_ZNSt15regex_constantsL11error_stackE:
	.long	12
	.section	.text._ZNSt11regex_errorC2ENSt15regex_constants10error_typeEPKc,"axG",@progbits,_ZNSt11regex_errorC5ENSt15regex_constants10error_typeEPKc,comdat
	.align 2
	.weak	_ZNSt11regex_errorC2ENSt15regex_constants10error_typeEPKc
	.type	_ZNSt11regex_errorC2ENSt15regex_constants10error_typeEPKc, @function
_ZNSt11regex_errorC2ENSt15regex_constants10error_typeEPKc:
.LFB4107:
	.cfi_startproc
	pushq	%rbp
	.cfi_def_cfa_offset 16
	.cfi_offset 6, -16
	movq	%rsp, %rbp
	.cfi_def_cfa_register 6
	subq	$32, %rsp
	movq	%rdi, -8(%rbp)
	movl	%esi, -12(%rbp)
	movq	%rdx, -24(%rbp)
	movq	-8(%rbp), %rax
	movq	-24(%rbp), %rdx
	movq	%rdx, %rsi
	movq	%rax, %rdi
	call	_ZNSt13runtime_errorC2EPKc@PLT
	leaq	16+_ZTVSt11regex_error(%rip), %rdx
	movq	-8(%rbp), %rax
	movq	%rdx, (%rax)
	movq	-8(%rbp), %rax
	movl	-12(%rbp), %edx
	movl	%edx, 16(%rax)
	nop
	leave
	.cfi_def_cfa 7, 8
	ret
	.cfi_endproc
.LFE4107:
	.size	_ZNSt11regex_errorC2ENSt15regex_constants10error_typeEPKc, .-_ZNSt11regex_errorC2ENSt15regex_constants10error_typeEPKc
	.weak	_ZNSt11regex_errorC1ENSt15regex_constants10error_typeEPKc
	.set	_ZNSt11regex_errorC1ENSt15regex_constants10error_typeEPKc,_ZNSt11regex_errorC2ENSt15regex_constants10error_typeEPKc
	.section	.text._ZSt19__throw_regex_errorNSt15regex_constants10error_typeEPKc,"axG",@progbits,_ZSt19__throw_regex_errorNSt15regex_constants10error_typeEPKc,comdat
	.weak	_ZSt19__throw_regex_errorNSt15regex_constants10error_typeEPKc
	.type	_ZSt19__throw_regex_errorNSt15regex_constants10error_typeEPKc, @function
_ZSt19__throw_regex_errorNSt15regex_constants10error_typeEPKc:
.LFB4109:
	.cfi_startproc
	.cfi_personality 0x9b,DW.ref.__gxx_personality_v0
	.cfi_lsda 0x1b,.LLSDA4109
	pushq	%rbp
	.cfi_def_cfa_offset 16
	.cfi_offset 6, -16
	movq	%rsp, %rbp
	.cfi_def_cfa_register 6
	pushq	%r12
	pushq	%rbx
	subq	$16, %rsp
	.cfi_offset 12, -24
	.cfi_offset 3, -32
	movl	%edi, -20(%rbp)
	movq	%rsi, -32(%rbp)
	movl	$24, %edi
	call	__cxa_allocate_exception@PLT
	movq	%rax, %rbx
	movq	-32(%rbp), %rdx
	movl	-20(%rbp), %eax
	movl	%eax, %esi
	movq	%rbx, %rdi
.LEHB6:
	call	_ZNSt11regex_errorC1ENSt15regex_constants10error_typeEPKc
.LEHE6:
	movq	_ZNSt11regex_errorD1Ev@GOTPCREL(%rip), %rax
	movq	%rax, %rdx
	leaq	_ZTISt11regex_error(%rip), %rax
	movq	%rax, %rsi
	movq	%rbx, %rdi
.LEHB7:
	call	__cxa_throw@PLT
.L142:
	movq	%rax, %r12
	movq	%rbx, %rdi
	call	__cxa_free_exception@PLT
	movq	%r12, %rax
	movq	%rax, %rdi
	call	_Unwind_Resume@PLT
.LEHE7:
	.cfi_endproc
.LFE4109:
	.section	.gcc_except_table._ZSt19__throw_regex_errorNSt15regex_constants10error_typeEPKc,"aG",@progbits,_ZSt19__throw_regex_errorNSt15regex_constants10error_typeEPKc,comdat
.LLSDA4109:
	.byte	0xff
	.byte	0xff
	.byte	0x1
	.uleb128 .LLSDACSE4109-.LLSDACSB4109
.LLSDACSB4109:
	.uleb128 .LEHB6-.LFB4109
	.uleb128 .LEHE6-.LEHB6
	.uleb128 .L142-.LFB4109
	.uleb128 0
	.uleb128 .LEHB7-.LFB4109
	.uleb128 .LEHE7-.LEHB7
	.uleb128 0
	.uleb128 0
.LLSDACSE4109:
	.section	.text._ZSt19__throw_regex_errorNSt15regex_constants10error_typeEPKc,"axG",@progbits,_ZSt19__throw_regex_errorNSt15regex_constants10error_typeEPKc,comdat
	.size	_ZSt19__throw_regex_errorNSt15regex_constants10error_typeEPKc, .-_ZSt19__throw_regex_errorNSt15regex_constants10error_typeEPKc
	.section	.rodata
	.align 8
	.type	_ZNSt8__detailL19_S_invalid_state_idE, @object
	.size	_ZNSt8__detailL19_S_invalid_state_idE, 8
_ZNSt8__detailL19_S_invalid_state_idE:
	.quad	-1
	.section	.text._ZNSt8__detail11_State_baseC2ENS_7_OpcodeE,"axG",@progbits,_ZNSt8__detail11_State_baseC5ENS_7_OpcodeE,comdat
	.align 2
	.weak	_ZNSt8__detail11_State_baseC2ENS_7_OpcodeE
	.type	_ZNSt8__detail11_State_baseC2ENS_7_OpcodeE, @function
_ZNSt8__detail11_State_baseC2ENS_7_OpcodeE:
.LFB4111:
	.cfi_startproc
	pushq	%rbp
	.cfi_def_cfa_offset 16
	.cfi_offset 6, -16
	movq	%rsp, %rbp
	.cfi_def_cfa_register 6
	movq	%rdi, -8(%rbp)
	movl	%esi, -12(%rbp)
	movq	-8(%rbp), %rax
	movl	-12(%rbp), %edx
	movl	%edx, (%rax)
	movq	-8(%rbp), %rax
	movq	$-1, 8(%rax)
	nop
	popq	%rbp
	.cfi_def_cfa 7, 8
	ret
	.cfi_endproc
.LFE4111:
	.size	_ZNSt8__detail11_State_baseC2ENS_7_OpcodeE, .-_ZNSt8__detail11_State_baseC2ENS_7_OpcodeE
	.weak	_ZNSt8__detail11_State_baseC1ENS_7_OpcodeE
	.set	_ZNSt8__detail11_State_baseC1ENS_7_OpcodeE,_ZNSt8__detail11_State_baseC2ENS_7_OpcodeE
	.section	.text._ZNKSt8__detail11_State_base10_M_has_altEv,"axG",@progbits,_ZNKSt8__detail11_State_base10_M_has_altEv,comdat
	.align 2
	.weak	_ZNKSt8__detail11_State_base10_M_has_altEv
	.type	_ZNKSt8__detail11_State_base10_M_has_altEv, @function
_ZNKSt8__detail11_State_base10_M_has_altEv:
.LFB4113:
	.cfi_startproc
	pushq	%rbp
	.cfi_def_cfa_offset 16
	.cfi_offset 6, -16
	movq	%rsp, %rbp
	.cfi_def_cfa_register 6
	movq	%rdi, -8(%rbp)
	movq	-8(%rbp), %rax
	movl	(%rax), %eax
	cmpl	$1, %eax
	je	.L145
	movq	-8(%rbp), %rax
	movl	(%rax), %eax
	cmpl	$2, %eax
	je	.L145
	movq	-8(%rbp), %rax
	movl	(%rax), %eax
	cmpl	$7, %eax
	jne	.L146
.L145:
	movl	$1, %eax
	jmp	.L147
.L146:
	movl	$0, %eax
.L147:
	popq	%rbp
	.cfi_def_cfa 7, 8
	ret
	.cfi_endproc
.LFE4113:
	.size	_ZNKSt8__detail11_State_base10_M_has_altEv, .-_ZNKSt8__detail11_State_base10_M_has_altEv
	.section	.text._ZNSt12_Vector_baseImSaImEE12_Vector_implD2Ev,"axG",@progbits,_ZNSt12_Vector_baseImSaImEE12_Vector_implD5Ev,comdat
	.align 2
	.weak	_ZNSt12_Vector_baseImSaImEE12_Vector_implD2Ev
	.type	_ZNSt12_Vector_baseImSaImEE12_Vector_implD2Ev, @function
_ZNSt12_Vector_baseImSaImEE12_Vector_implD2Ev:
.LFB4127:
	.cfi_startproc
	pushq	%rbp
	.cfi_def_cfa_offset 16
	.cfi_offset 6, -16
	movq	%rsp, %rbp
	.cfi_def_cfa_register 6
	subq	$16, %rsp
	movq	%rdi, -8(%rbp)
	movq	-8(%rbp), %rax
	movq	%rax, %rdi
	call	_ZNSaImED2Ev
	nop
	leave
	.cfi_def_cfa 7, 8
	ret
	.cfi_endproc
.LFE4127:
	.size	_ZNSt12_Vector_baseImSaImEE12_Vector_implD2Ev, .-_ZNSt12_Vector_baseImSaImEE12_Vector_implD2Ev
	.weak	_ZNSt12_Vector_baseImSaImEE12_Vector_implD1Ev
	.set	_ZNSt12_Vector_baseImSaImEE12_Vector_implD1Ev,_ZNSt12_Vector_baseImSaImEE12_Vector_implD2Ev
	.section	.text._ZNSt12_Vector_baseImSaImEEC2Ev,"axG",@progbits,_ZNSt12_Vector_baseImSaImEEC5Ev,comdat
	.align 2
	.weak	_ZNSt12_Vector_baseImSaImEEC2Ev
	.type	_ZNSt12_Vector_baseImSaImEEC2Ev, @function
_ZNSt12_Vector_baseImSaImEEC2Ev:
.LFB4129:
	.cfi_startproc
	pushq	%rbp
	.cfi_def_cfa_offset 16
	.cfi_offset 6, -16
	movq	%rsp, %rbp
	.cfi_def_cfa_register 6
	subq	$16, %rsp
	movq	%rdi, -8(%rbp)
	movq	-8(%rbp), %rax
	movq	%rax, %rdi
	call	_ZNSt12_Vector_baseImSaImEE12_Vector_implC1Ev
	nop
	leave
	.cfi_def_cfa 7, 8
	ret
	.cfi_endproc
.LFE4129:
	.size	_ZNSt12_Vector_baseImSaImEEC2Ev, .-_ZNSt12_Vector_baseImSaImEEC2Ev
	.weak	_ZNSt12_Vector_baseImSaImEEC1Ev
	.set	_ZNSt12_Vector_baseImSaImEEC1Ev,_ZNSt12_Vector_baseImSaImEEC2Ev
	.section	.text._ZNSt6vectorImSaImEEC2Ev,"axG",@progbits,_ZNSt6vectorImSaImEEC5Ev,comdat
	.align 2
	.weak	_ZNSt6vectorImSaImEEC2Ev
	.type	_ZNSt6vectorImSaImEEC2Ev, @function
_ZNSt6vectorImSaImEEC2Ev:
.LFB4131:
	.cfi_startproc
	pushq	%rbp
	.cfi_def_cfa_offset 16
	.cfi_offset 6, -16
	movq	%rsp, %rbp
	.cfi_def_cfa_register 6
	subq	$16, %rsp
	movq	%rdi, -8(%rbp)
	movq	-8(%rbp), %rax
	movq	%rax, %rdi
	call	_ZNSt12_Vector_baseImSaImEEC2Ev
	nop
	leave
	.cfi_def_cfa 7, 8
	ret
	.cfi_endproc
.LFE4131:
	.size	_ZNSt6vectorImSaImEEC2Ev, .-_ZNSt6vectorImSaImEEC2Ev
	.weak	_ZNSt6vectorImSaImEEC1Ev
	.set	_ZNSt6vectorImSaImEEC1Ev,_ZNSt6vectorImSaImEEC2Ev
	.section	.text._ZNSt8__detail9_NFA_baseC2ENSt15regex_constants18syntax_option_typeE,"axG",@progbits,_ZNSt8__detail9_NFA_baseC5ENSt15regex_constants18syntax_option_typeE,comdat
	.align 2
	.weak	_ZNSt8__detail9_NFA_baseC2ENSt15regex_constants18syntax_option_typeE
	.type	_ZNSt8__detail9_NFA_baseC2ENSt15regex_constants18syntax_option_typeE, @function
_ZNSt8__detail9_NFA_baseC2ENSt15regex_constants18syntax_option_typeE:
.LFB4133:
	.cfi_startproc
	pushq	%rbp
	.cfi_def_cfa_offset 16
	.cfi_offset 6, -16
	movq	%rsp, %rbp
	.cfi_def_cfa_register 6
	subq	$16, %rsp
	movq	%rdi, -8(%rbp)
	movl	%esi, -12(%rbp)
	movq	-8(%rbp), %rax
	movq	%rax, %rdi
	call	_ZNSt6vectorImSaImEEC1Ev
	movq	-8(%rbp), %rax
	movl	-12(%rbp), %edx
	movl	%edx, 24(%rax)
	movq	-8(%rbp), %rax
	movq	$0, 32(%rax)
	movq	-8(%rbp), %rax
	movq	$0, 40(%rax)
	movq	-8(%rbp), %rax
	movb	$0, 48(%rax)
	nop
	leave
	.cfi_def_cfa 7, 8
	ret
	.cfi_endproc
.LFE4133:
	.size	_ZNSt8__detail9_NFA_baseC2ENSt15regex_constants18syntax_option_typeE, .-_ZNSt8__detail9_NFA_baseC2ENSt15regex_constants18syntax_option_typeE
	.weak	_ZNSt8__detail9_NFA_baseC1ENSt15regex_constants18syntax_option_typeE
	.set	_ZNSt8__detail9_NFA_baseC1ENSt15regex_constants18syntax_option_typeE,_ZNSt8__detail9_NFA_baseC2ENSt15regex_constants18syntax_option_typeE
	.section	.text._ZNKSt8__detail9_NFA_base10_M_optionsEv,"axG",@progbits,_ZNKSt8__detail9_NFA_base10_M_optionsEv,comdat
	.align 2
	.weak	_ZNKSt8__detail9_NFA_base10_M_optionsEv
	.type	_ZNKSt8__detail9_NFA_base10_M_optionsEv, @function
_ZNKSt8__detail9_NFA_base10_M_optionsEv:
.LFB4135:
	.cfi_startproc
	pushq	%rbp
	.cfi_def_cfa_offset 16
	.cfi_offset 6, -16
	movq	%rsp, %rbp
	.cfi_def_cfa_register 6
	movq	%rdi, -8(%rbp)
	movq	-8(%rbp), %rax
	movl	24(%rax), %eax
	popq	%rbp
	.cfi_def_cfa 7, 8
	ret
	.cfi_endproc
.LFE4135:
	.size	_ZNKSt8__detail9_NFA_base10_M_optionsEv, .-_ZNKSt8__detail9_NFA_base10_M_optionsEv
	.section	.text._ZNKSt8__detail9_NFA_base8_M_startEv,"axG",@progbits,_ZNKSt8__detail9_NFA_base8_M_startEv,comdat
	.align 2
	.weak	_ZNKSt8__detail9_NFA_base8_M_startEv
	.type	_ZNKSt8__detail9_NFA_base8_M_startEv, @function
_ZNKSt8__detail9_NFA_base8_M_startEv:
.LFB4136:
	.cfi_startproc
	pushq	%rbp
	.cfi_def_cfa_offset 16
	.cfi_offset 6, -16
	movq	%rsp, %rbp
	.cfi_def_cfa_register 6
	movq	%rdi, -8(%rbp)
	movq	-8(%rbp), %rax
	movq	32(%rax), %rax
	popq	%rbp
	.cfi_def_cfa 7, 8
	ret
	.cfi_endproc
.LFE4136:
	.size	_ZNKSt8__detail9_NFA_base8_M_startEv, .-_ZNKSt8__detail9_NFA_base8_M_startEv
	.section	.text._ZNKSt8__detail9_NFA_base12_M_sub_countEv,"axG",@progbits,_ZNKSt8__detail9_NFA_base12_M_sub_countEv,comdat
	.align 2
	.weak	_ZNKSt8__detail9_NFA_base12_M_sub_countEv
	.type	_ZNKSt8__detail9_NFA_base12_M_sub_countEv, @function
_ZNKSt8__detail9_NFA_base12_M_sub_countEv:
.LFB4137:
	.cfi_startproc
	pushq	%rbp
	.cfi_def_cfa_offset 16
	.cfi_offset 6, -16
	movq	%rsp, %rbp
	.cfi_def_cfa_register 6
	movq	%rdi, -8(%rbp)
	movq	-8(%rbp), %rax
	movq	40(%rax), %rax
	popq	%rbp
	.cfi_def_cfa 7, 8
	ret
	.cfi_endproc
.LFE4137:
	.size	_ZNKSt8__detail9_NFA_base12_M_sub_countEv, .-_ZNKSt8__detail9_NFA_base12_M_sub_countEv
	.section	.text._ZSt7forwardIcEOT_RNSt16remove_referenceIS0_E4typeE,"axG",@progbits,_ZSt7forwardIcEOT_RNSt16remove_referenceIS0_E4typeE,comdat
	.weak	_ZSt7forwardIcEOT_RNSt16remove_referenceIS0_E4typeE
	.type	_ZSt7forwardIcEOT_RNSt16remove_referenceIS0_E4typeE, @function
_ZSt7forwardIcEOT_RNSt16remove_referenceIS0_E4typeE:
.LFB4167:
	.cfi_startproc
	pushq	%rbp
	.cfi_def_cfa_offset 16
	.cfi_offset 6, -16
	movq	%rsp, %rbp
	.cfi_def_cfa_register 6
	movq	%rdi, -8(%rbp)
	movq	-8(%rbp), %rax
	popq	%rbp
	.cfi_def_cfa 7, 8
	ret
	.cfi_endproc
.LFE4167:
	.size	_ZSt7forwardIcEOT_RNSt16remove_referenceIS0_E4typeE, .-_ZSt7forwardIcEOT_RNSt16remove_referenceIS0_E4typeE
	.section	.text._ZNSt4pairIccEC1IccLb1EEEOT_OT0_,"axG",@progbits,_ZNSt4pairIccEC1IccLb1EEEOT_OT0_,comdat
	.align 2
	.weak	_ZNSt4pairIccEC1IccLb1EEEOT_OT0_
	.type	_ZNSt4pairIccEC1IccLb1EEEOT_OT0_, @function
_ZNSt4pairIccEC1IccLb1EEEOT_OT0_:
.LFB4175:
	.cfi_startproc
	pushq	%rbp
	.cfi_def_cfa_offset 16
	.cfi_offset 6, -16
	movq	%rsp, %rbp
	.cfi_def_cfa_register 6
	subq	$32, %rsp
	movq	%rdi, -8(%rbp)
	movq	%rsi, -16(%rbp)
	movq	%rdx, -24(%rbp)
	movq	-16(%rbp), %rax
	movq	%rax, %rdi
	call	_ZSt7forwardIcEOT_RNSt16remove_referenceIS0_E4typeE
	movzbl	(%rax), %edx
	movq	-8(%rbp), %rax
	movb	%dl, (%rax)
	movq	-24(%rbp), %rax
	movq	%rax, %rdi
	call	_ZSt7forwardIcEOT_RNSt16remove_referenceIS0_E4typeE
	movzbl	(%rax), %edx
	movq	-8(%rbp), %rax
	movb	%dl, 1(%rax)
	nop
	leave
	.cfi_def_cfa 7, 8
	ret
	.cfi_endproc
.LFE4175:
	.size	_ZNSt4pairIccEC1IccLb1EEEOT_OT0_, .-_ZNSt4pairIccEC1IccLb1EEEOT_OT0_
	.section	.rodata
.LC1:
	.string	"^$\\.*+?()[]{}|"
.LC2:
	.string	".[\\*^$"
.LC3:
	.string	".[\\()*+?{|^$"
.LC4:
	.string	".[\\()*+?{|^$\n"
.LC5:
	.string	".[\\*^$\n"
	.section	.text._ZNSt8__detail12_ScannerBaseC2ENSt15regex_constants18syntax_option_typeE,"axG",@progbits,_ZNSt8__detail12_ScannerBaseC5ENSt15regex_constants18syntax_option_typeE,comdat
	.align 2
	.weak	_ZNSt8__detail12_ScannerBaseC2ENSt15regex_constants18syntax_option_typeE
	.type	_ZNSt8__detail12_ScannerBaseC2ENSt15regex_constants18syntax_option_typeE, @function
_ZNSt8__detail12_ScannerBaseC2ENSt15regex_constants18syntax_option_typeE:
.LFB4177:
	.cfi_startproc
	pushq	%rbp
	.cfi_def_cfa_offset 16
	.cfi_offset 6, -16
	movq	%rsp, %rbp
	.cfi_def_cfa_register 6
	subq	$16, %rsp
	movq	%rdi, -8(%rbp)
	movl	%esi, -12(%rbp)
	movq	-8(%rbp), %rax
	pxor	%xmm0, %xmm0
	movups	%xmm0, (%rax)
	movups	%xmm0, 16(%rax)
	movups	%xmm0, 32(%rax)
	movups	%xmm0, 48(%rax)
	movq	%xmm0, 64(%rax)
	movq	-8(%rbp), %rax
	movb	$94, (%rax)
	movq	-8(%rbp), %rax
	movl	$22, 4(%rax)
	movq	-8(%rbp), %rax
	movb	$36, 8(%rax)
	movq	-8(%rbp), %rax
	movl	$23, 12(%rax)
	movq	-8(%rbp), %rax
	movb	$46, 16(%rax)
	movq	-8(%rbp), %rax
	movb	$42, 24(%rax)
	movq	-8(%rbp), %rax
	movl	$20, 28(%rax)
	movq	-8(%rbp), %rax
	movb	$43, 32(%rax)
	movq	-8(%rbp), %rax
	movl	$21, 36(%rax)
	movq	-8(%rbp), %rax
	movb	$63, 40(%rax)
	movq	-8(%rbp), %rax
	movl	$18, 44(%rax)
	movq	-8(%rbp), %rax
	movb	$124, 48(%rax)
	movq	-8(%rbp), %rax
	movl	$19, 52(%rax)
	movq	-8(%rbp), %rax
	movb	$10, 56(%rax)
	movq	-8(%rbp), %rax
	movl	$19, 60(%rax)
	movq	-8(%rbp), %rax
	movl	$19, 68(%rax)
	movq	-8(%rbp), %rax
	movq	$0, 72(%rax)
	movq	$0, 80(%rax)
	movq	-8(%rbp), %rax
	movb	$48, 72(%rax)
	movq	-8(%rbp), %rax
	movb	$98, 74(%rax)
	movq	-8(%rbp), %rax
	movb	$8, 75(%rax)
	movq	-8(%rbp), %rax
	movb	$102, 76(%rax)
	movq	-8(%rbp), %rax
	movb	$12, 77(%rax)
	movq	-8(%rbp), %rax
	movb	$110, 78(%rax)
	movq	-8(%rbp), %rax
	movb	$10, 79(%rax)
	movq	-8(%rbp), %rax
	movb	$114, 80(%rax)
	movq	-8(%rbp), %rax
	movb	$13, 81(%rax)
	movq	-8(%rbp), %rax
	movb	$116, 82(%rax)
	movq	-8(%rbp), %rax
	movb	$9, 83(%rax)
	movq	-8(%rbp), %rax
	movb	$118, 84(%rax)
	movq	-8(%rbp), %rax
	movb	$11, 85(%rax)
	movq	-8(%rbp), %rax
	pxor	%xmm0, %xmm0
	movups	%xmm0, 88(%rax)
	movq	%xmm0, 102(%rax)
	movq	-8(%rbp), %rax
	movb	$34, 88(%rax)
	movq	-8(%rbp), %rax
	movb	$34, 89(%rax)
	movq	-8(%rbp), %rax
	movb	$47, 90(%rax)
	movq	-8(%rbp), %rax
	movb	$47, 91(%rax)
	movq	-8(%rbp), %rax
	movb	$92, 92(%rax)
	movq	-8(%rbp), %rax
	movb	$92, 93(%rax)
	movq	-8(%rbp), %rax
	movb	$97, 94(%rax)
	movq	-8(%rbp), %rax
	movb	$7, 95(%rax)
	movq	-8(%rbp), %rax
	movb	$98, 96(%rax)
	movq	-8(%rbp), %rax
	movb	$8, 97(%rax)
	movq	-8(%rbp), %rax
	movb	$102, 98(%rax)
	movq	-8(%rbp), %rax
	movb	$12, 99(%rax)
	movq	-8(%rbp), %rax
	movb	$110, 100(%rax)
	movq	-8(%rbp), %rax
	movb	$10, 101(%rax)
	movq	-8(%rbp), %rax
	movb	$114, 102(%rax)
	movq	-8(%rbp), %rax
	movb	$13, 103(%rax)
	movq	-8(%rbp), %rax
	movb	$116, 104(%rax)
	movq	-8(%rbp), %rax
	movb	$9, 105(%rax)
	movq	-8(%rbp), %rax
	movb	$118, 106(%rax)
	movq	-8(%rbp), %rax
	movb	$11, 107(%rax)
	movq	-8(%rbp), %rax
	leaq	.LC1(%rip), %rdx
	movq	%rdx, 112(%rax)
	movq	-8(%rbp), %rax
	leaq	.LC2(%rip), %rdx
	movq	%rdx, 120(%rax)
	movq	-8(%rbp), %rax
	leaq	.LC3(%rip), %rdx
	movq	%rdx, 128(%rax)
	movq	-8(%rbp), %rax
	movl	$0, 136(%rax)
	movq	-8(%rbp), %rax
	movl	-12(%rbp), %edx
	movl	%edx, 140(%rax)
	movq	-8(%rbp), %rax
	movq	%rax, %rdi
	call	_ZNKSt8__detail12_ScannerBase10_M_is_ecmaEv
	testb	%al, %al
	je	.L163
	movq	-8(%rbp), %rax
	addq	$72, %rax
	jmp	.L164
.L163:
	movq	-8(%rbp), %rax
	addq	$88, %rax
.L164:
	movq	-8(%rbp), %rdx
	movq	%rax, 152(%rdx)
	movq	-8(%rbp), %rax
	movq	%rax, %rdi
	call	_ZNKSt8__detail12_ScannerBase10_M_is_ecmaEv
	testb	%al, %al
	je	.L165
	movq	-8(%rbp), %rax
	movq	112(%rax), %rax
	jmp	.L166
.L165:
	movq	-8(%rbp), %rax
	movl	140(%rax), %eax
	movl	$32, %esi
	movl	%eax, %edi
	call	_ZNSt15regex_constantsanENS_18syntax_option_typeES0_
	testl	%eax, %eax
	je	.L167
	movq	-8(%rbp), %rax
	movq	120(%rax), %rax
	jmp	.L166
.L167:
	movq	-8(%rbp), %rax
	movl	140(%rax), %eax
	movl	$64, %esi
	movl	%eax, %edi
	call	_ZNSt15regex_constantsanENS_18syntax_option_typeES0_
	testl	%eax, %eax
	je	.L169
	movq	-8(%rbp), %rax
	movq	128(%rax), %rax
	jmp	.L166
.L169:
	movq	-8(%rbp), %rax
	movl	140(%rax), %eax
	movl	$256, %esi
	movl	%eax, %edi
	call	_ZNSt15regex_constantsanENS_18syntax_option_typeES0_
	testl	%eax, %eax
	jne	.L171
	movq	-8(%rbp), %rax
	movl	140(%rax), %eax
	movl	$512, %esi
	movl	%eax, %edi
	call	_ZNSt15regex_constantsanENS_18syntax_option_typeES0_
	testl	%eax, %eax
	jne	.L172
	movq	-8(%rbp), %rax
	movl	140(%rax), %eax
	movl	$128, %esi
	movl	%eax, %edi
	call	_ZNSt15regex_constantsanENS_18syntax_option_typeES0_
	testl	%eax, %eax
	je	.L173
	movq	-8(%rbp), %rax
	movq	128(%rax), %rax
	jmp	.L166
.L173:
	movl	$0, %eax
	jmp	.L166
.L172:
	leaq	.LC4(%rip), %rax
	jmp	.L166
.L171:
	leaq	.LC5(%rip), %rax
.L166:
	movq	-8(%rbp), %rdx
	movq	%rax, 160(%rdx)
	movq	-8(%rbp), %rax
	movb	$0, 168(%rax)
	call	_ZSt23__is_constant_evaluatedv
	testb	%al, %al
	je	.L177
	movq	-8(%rbp), %rax
	movq	160(%rax), %rax
	testq	%rax, %rax
	jne	.L177
	movl	$1, %eax
	jmp	.L178
.L177:
	movl	$0, %eax
.L178:
	testb	%al, %al
	nop
	leave
	.cfi_def_cfa 7, 8
	ret
	.cfi_endproc
.LFE4177:
	.size	_ZNSt8__detail12_ScannerBaseC2ENSt15regex_constants18syntax_option_typeE, .-_ZNSt8__detail12_ScannerBaseC2ENSt15regex_constants18syntax_option_typeE
	.weak	_ZNSt8__detail12_ScannerBaseC1ENSt15regex_constants18syntax_option_typeE
	.set	_ZNSt8__detail12_ScannerBaseC1ENSt15regex_constants18syntax_option_typeE,_ZNSt8__detail12_ScannerBaseC2ENSt15regex_constants18syntax_option_typeE
	.section	.text._ZNSt8__detail12_ScannerBase14_M_find_escapeEc,"axG",@progbits,_ZNSt8__detail12_ScannerBase14_M_find_escapeEc,comdat
	.align 2
	.weak	_ZNSt8__detail12_ScannerBase14_M_find_escapeEc
	.type	_ZNSt8__detail12_ScannerBase14_M_find_escapeEc, @function
_ZNSt8__detail12_ScannerBase14_M_find_escapeEc:
.LFB4179:
	.cfi_startproc
	pushq	%rbp
	.cfi_def_cfa_offset 16
	.cfi_offset 6, -16
	movq	%rsp, %rbp
	.cfi_def_cfa_register 6
	movq	%rdi, -24(%rbp)
	movl	%esi, %eax
	movb	%al, -28(%rbp)
	movq	-24(%rbp), %rax
	movq	152(%rax), %rax
	movq	%rax, -8(%rbp)
	jmp	.L181
.L184:
	movq	-8(%rbp), %rax
	movzbl	(%rax), %eax
	cmpb	%al, -28(%rbp)
	jne	.L182
	movq	-8(%rbp), %rax
	addq	$1, %rax
	jmp	.L183
.L182:
	addq	$2, -8(%rbp)
.L181:
	movq	-8(%rbp), %rax
	movzbl	(%rax), %eax
	testb	%al, %al
	jne	.L184
	movl	$0, %eax
.L183:
	popq	%rbp
	.cfi_def_cfa 7, 8
	ret
	.cfi_endproc
.LFE4179:
	.size	_ZNSt8__detail12_ScannerBase14_M_find_escapeEc, .-_ZNSt8__detail12_ScannerBase14_M_find_escapeEc
	.section	.text._ZNKSt8__detail12_ScannerBase10_M_is_ecmaEv,"axG",@progbits,_ZNKSt8__detail12_ScannerBase10_M_is_ecmaEv,comdat
	.align 2
	.weak	_ZNKSt8__detail12_ScannerBase10_M_is_ecmaEv
	.type	_ZNKSt8__detail12_ScannerBase10_M_is_ecmaEv, @function
_ZNKSt8__detail12_ScannerBase10_M_is_ecmaEv:
.LFB4180:
	.cfi_startproc
	pushq	%rbp
	.cfi_def_cfa_offset 16
	.cfi_offset 6, -16
	movq	%rsp, %rbp
	.cfi_def_cfa_register 6
	subq	$16, %rsp
	movq	%rdi, -8(%rbp)
	movq	-8(%rbp), %rax
	movl	140(%rax), %eax
	movl	$16, %esi
	movl	%eax, %edi
	call	_ZNSt15regex_constantsanENS_18syntax_option_typeES0_
	testl	%eax, %eax
	setne	%al
	leave
	.cfi_def_cfa 7, 8
	ret
	.cfi_endproc
.LFE4180:
	.size	_ZNKSt8__detail12_ScannerBase10_M_is_ecmaEv, .-_ZNKSt8__detail12_ScannerBase10_M_is_ecmaEv
	.section	.text._ZNKSt8__detail12_ScannerBase11_M_is_basicEv,"axG",@progbits,_ZNKSt8__detail12_ScannerBase11_M_is_basicEv,comdat
	.align 2
	.weak	_ZNKSt8__detail12_ScannerBase11_M_is_basicEv
	.type	_ZNKSt8__detail12_ScannerBase11_M_is_basicEv, @function
_ZNKSt8__detail12_ScannerBase11_M_is_basicEv:
.LFB4181:
	.cfi_startproc
	pushq	%rbp
	.cfi_def_cfa_offset 16
	.cfi_offset 6, -16
	movq	%rsp, %rbp
	.cfi_def_cfa_register 6
	subq	$16, %rsp
	movq	%rdi, -8(%rbp)
	movl	$256, %esi
	movl	$32, %edi
	call	_ZNSt15regex_constantsorENS_18syntax_option_typeES0_
	movl	%eax, %edx
	movq	-8(%rbp), %rax
	movl	140(%rax), %eax
	movl	%edx, %esi
	movl	%eax, %edi
	call	_ZNSt15regex_constantsanENS_18syntax_option_typeES0_
	testl	%eax, %eax
	setne	%al
	leave
	.cfi_def_cfa 7, 8
	ret
	.cfi_endproc
.LFE4181:
	.size	_ZNKSt8__detail12_ScannerBase11_M_is_basicEv, .-_ZNKSt8__detail12_ScannerBase11_M_is_basicEv
	.section	.text._ZNKSt8__detail12_ScannerBase9_M_is_awkEv,"axG",@progbits,_ZNKSt8__detail12_ScannerBase9_M_is_awkEv,comdat
	.align 2
	.weak	_ZNKSt8__detail12_ScannerBase9_M_is_awkEv
	.type	_ZNKSt8__detail12_ScannerBase9_M_is_awkEv, @function
_ZNKSt8__detail12_ScannerBase9_M_is_awkEv:
.LFB4184:
	.cfi_startproc
	pushq	%rbp
	.cfi_def_cfa_offset 16
	.cfi_offset 6, -16
	movq	%rsp, %rbp
	.cfi_def_cfa_register 6
	subq	$16, %rsp
	movq	%rdi, -8(%rbp)
	movq	-8(%rbp), %rax
	movl	140(%rax), %eax
	movl	$128, %esi
	movl	%eax, %edi
	call	_ZNSt15regex_constantsanENS_18syntax_option_typeES0_
	testl	%eax, %eax
	setne	%al
	leave
	.cfi_def_cfa 7, 8
	ret
	.cfi_endproc
.LFE4184:
	.size	_ZNKSt8__detail12_ScannerBase9_M_is_awkEv, .-_ZNKSt8__detail12_ScannerBase9_M_is_awkEv
	.local	_ZZ11escapeRegexRKNSt7__cxx1112basic_stringIcSt11char_traitsIcESaIcEEEE12specialChars
	.comm	_ZZ11escapeRegexRKNSt7__cxx1112basic_stringIcSt11char_traitsIcESaIcEEEE12specialChars,32,32
	.local	_ZGVZ11escapeRegexRKNSt7__cxx1112basic_stringIcSt11char_traitsIcESaIcEEEE12specialChars
	.comm	_ZGVZ11escapeRegexRKNSt7__cxx1112basic_stringIcSt11char_traitsIcESaIcEEEE12specialChars,8,8
	.section	.rodata
.LC6:
	.string	"[-[\\]{}()*+?.,\\^$|#\\s]"
.LC7:
	.string	"\\$&"
	.text
	.globl	_Z11escapeRegexRKNSt7__cxx1112basic_stringIcSt11char_traitsIcESaIcEEE
	.type	_Z11escapeRegexRKNSt7__cxx1112basic_stringIcSt11char_traitsIcESaIcEEE, @function
_Z11escapeRegexRKNSt7__cxx1112basic_stringIcSt11char_traitsIcESaIcEEE:
.LFB4482:
	.cfi_startproc
	.cfi_personality 0x9b,DW.ref.__gxx_personality_v0
	.cfi_lsda 0x1b,.LLSDA4482
	pushq	%rbp
	.cfi_def_cfa_offset 16
	.cfi_offset 6, -16
	movq	%rsp, %rbp
	.cfi_def_cfa_register 6
	pushq	%r12
	pushq	%rbx
	subq	$16, %rsp
	.cfi_offset 12, -24
	.cfi_offset 3, -32
	movq	%rdi, -24(%rbp)
	movq	%rsi, -32(%rbp)
	movzbl	_ZGVZ11escapeRegexRKNSt7__cxx1112basic_stringIcSt11char_traitsIcESaIcEEEE12specialChars(%rip), %eax
	testb	%al, %al
	sete	%al
	testb	%al, %al
	je	.L192
	leaq	_ZGVZ11escapeRegexRKNSt7__cxx1112basic_stringIcSt11char_traitsIcESaIcEEEE12specialChars(%rip), %rax
	movq	%rax, %rdi
	call	__cxa_guard_acquire@PLT
	testl	%eax, %eax
	setne	%al
	testb	%al, %al
	je	.L192
	movl	$0, %r12d
	movl	$16, %edx
	leaq	.LC6(%rip), %rax
	movq	%rax, %rsi
	leaq	_ZZ11escapeRegexRKNSt7__cxx1112basic_stringIcSt11char_traitsIcESaIcEEEE12specialChars(%rip), %rax
	movq	%rax, %rdi
.LEHB8:
	call	_ZNSt7__cxx1111basic_regexIcNS_12regex_traitsIcEEEC1EPKcNSt15regex_constants18syntax_option_typeE
.LEHE8:
	leaq	__dso_handle(%rip), %rax
	movq	%rax, %rdx
	leaq	_ZZ11escapeRegexRKNSt7__cxx1112basic_stringIcSt11char_traitsIcESaIcEEEE12specialChars(%rip), %rax
	movq	%rax, %rsi
	leaq	_ZNSt7__cxx1111basic_regexIcNS_12regex_traitsIcEEED1Ev(%rip), %rax
	movq	%rax, %rdi
	call	__cxa_atexit@PLT
	leaq	_ZGVZ11escapeRegexRKNSt7__cxx1112basic_stringIcSt11char_traitsIcESaIcEEEE12specialChars(%rip), %rax
	movq	%rax, %rdi
	call	__cxa_guard_release@PLT
.L192:
	movq	-24(%rbp), %rax
	movq	-32(%rbp), %rsi
	movl	$0, %r8d
	leaq	.LC7(%rip), %rdx
	movq	%rdx, %rcx
	leaq	_ZZ11escapeRegexRKNSt7__cxx1112basic_stringIcSt11char_traitsIcESaIcEEEE12specialChars(%rip), %rdx
	movq	%rax, %rdi
.LEHB9:
	call	_ZSt13regex_replaceINSt7__cxx1112regex_traitsIcEEcSt11char_traitsIcESaIcEENS0_12basic_stringIT0_T1_T2_EERKSA_RKNS0_11basic_regexIS7_T_EEPKS7_NSt15regex_constants15match_flag_typeE
	jmp	.L197
.L196:
	movq	%rax, %rbx
	testb	%r12b, %r12b
	jne	.L195
	leaq	_ZGVZ11escapeRegexRKNSt7__cxx1112basic_stringIcSt11char_traitsIcESaIcEEEE12specialChars(%rip), %rax
	movq	%rax, %rdi
	call	__cxa_guard_abort@PLT
.L195:
	movq	%rbx, %rax
	movq	%rax, %rdi
	call	_Unwind_Resume@PLT
.LEHE9:
.L197:
	movq	-24(%rbp), %rax
	addq	$16, %rsp
	popq	%rbx
	popq	%r12
	popq	%rbp
	.cfi_def_cfa 7, 8
	ret
	.cfi_endproc
.LFE4482:
	.section	.gcc_except_table,"a",@progbits
.LLSDA4482:
	.byte	0xff
	.byte	0xff
	.byte	0x1
	.uleb128 .LLSDACSE4482-.LLSDACSB4482
.LLSDACSB4482:
	.uleb128 .LEHB8-.LFB4482
	.uleb128 .LEHE8-.LEHB8
	.uleb128 .L196-.LFB4482
	.uleb128 0
	.uleb128 .LEHB9-.LFB4482
	.uleb128 .LEHE9-.LEHB9
	.uleb128 0
	.uleb128 0
.LLSDACSE4482:
	.text
	.size	_Z11escapeRegexRKNSt7__cxx1112basic_stringIcSt11char_traitsIcESaIcEEE, .-_Z11escapeRegexRKNSt7__cxx1112basic_stringIcSt11char_traitsIcESaIcEEE
	.section	.text._ZNSt12_Vector_baseINSt7__cxx1112basic_stringIcSt11char_traitsIcESaIcEEESaIS5_EE12_Vector_implD2Ev,"axG",@progbits,_ZNSt12_Vector_baseINSt7__cxx1112basic_stringIcSt11char_traitsIcESaIcEEESaIS5_EE12_Vector_implD5Ev,comdat
	.align 2
	.weak	_ZNSt12_Vector_baseINSt7__cxx1112basic_stringIcSt11char_traitsIcESaIcEEESaIS5_EE12_Vector_implD2Ev
	.type	_ZNSt12_Vector_baseINSt7__cxx1112basic_stringIcSt11char_traitsIcESaIcEEESaIS5_EE12_Vector_implD2Ev, @function
_ZNSt12_Vector_baseINSt7__cxx1112basic_stringIcSt11char_traitsIcESaIcEEESaIS5_EE12_Vector_implD2Ev:
.LFB4488:
	.cfi_startproc
	pushq	%rbp
	.cfi_def_cfa_offset 16
	.cfi_offset 6, -16
	movq	%rsp, %rbp
	.cfi_def_cfa_register 6
	subq	$16, %rsp
	movq	%rdi, -8(%rbp)
	movq	-8(%rbp), %rax
	movq	%rax, %rdi
	call	_ZNSaINSt7__cxx1112basic_stringIcSt11char_traitsIcESaIcEEEED2Ev
	nop
	leave
	.cfi_def_cfa 7, 8
	ret
	.cfi_endproc
.LFE4488:
	.size	_ZNSt12_Vector_baseINSt7__cxx1112basic_stringIcSt11char_traitsIcESaIcEEESaIS5_EE12_Vector_implD2Ev, .-_ZNSt12_Vector_baseINSt7__cxx1112basic_stringIcSt11char_traitsIcESaIcEEESaIS5_EE12_Vector_implD2Ev
	.weak	_ZNSt12_Vector_baseINSt7__cxx1112basic_stringIcSt11char_traitsIcESaIcEEESaIS5_EE12_Vector_implD1Ev
	.set	_ZNSt12_Vector_baseINSt7__cxx1112basic_stringIcSt11char_traitsIcESaIcEEESaIS5_EE12_Vector_implD1Ev,_ZNSt12_Vector_baseINSt7__cxx1112basic_stringIcSt11char_traitsIcESaIcEEESaIS5_EE12_Vector_implD2Ev
	.section	.text._ZNSt12_Vector_baseINSt7__cxx1112basic_stringIcSt11char_traitsIcESaIcEEESaIS5_EEC2Ev,"axG",@progbits,_ZNSt12_Vector_baseINSt7__cxx1112basic_stringIcSt11char_traitsIcESaIcEEESaIS5_EEC5Ev,comdat
	.align 2
	.weak	_ZNSt12_Vector_baseINSt7__cxx1112basic_stringIcSt11char_traitsIcESaIcEEESaIS5_EEC2Ev
	.type	_ZNSt12_Vector_baseINSt7__cxx1112basic_stringIcSt11char_traitsIcESaIcEEESaIS5_EEC2Ev, @function
_ZNSt12_Vector_baseINSt7__cxx1112basic_stringIcSt11char_traitsIcESaIcEEESaIS5_EEC2Ev:
.LFB4490:
	.cfi_startproc
	pushq	%rbp
	.cfi_def_cfa_offset 16
	.cfi_offset 6, -16
	movq	%rsp, %rbp
	.cfi_def_cfa_register 6
	subq	$16, %rsp
	movq	%rdi, -8(%rbp)
	movq	-8(%rbp), %rax
	movq	%rax, %rdi
	call	_ZNSt12_Vector_baseINSt7__cxx1112basic_stringIcSt11char_traitsIcESaIcEEESaIS5_EE12_Vector_implC1Ev
	nop
	leave
	.cfi_def_cfa 7, 8
	ret
	.cfi_endproc
.LFE4490:
	.size	_ZNSt12_Vector_baseINSt7__cxx1112basic_stringIcSt11char_traitsIcESaIcEEESaIS5_EEC2Ev, .-_ZNSt12_Vector_baseINSt7__cxx1112basic_stringIcSt11char_traitsIcESaIcEEESaIS5_EEC2Ev
	.weak	_ZNSt12_Vector_baseINSt7__cxx1112basic_stringIcSt11char_traitsIcESaIcEEESaIS5_EEC1Ev
	.set	_ZNSt12_Vector_baseINSt7__cxx1112basic_stringIcSt11char_traitsIcESaIcEEESaIS5_EEC1Ev,_ZNSt12_Vector_baseINSt7__cxx1112basic_stringIcSt11char_traitsIcESaIcEEESaIS5_EEC2Ev
	.section	.text._ZNSt6vectorINSt7__cxx1112basic_stringIcSt11char_traitsIcESaIcEEESaIS5_EEC2Ev,"axG",@progbits,_ZNSt6vectorINSt7__cxx1112basic_stringIcSt11char_traitsIcESaIcEEESaIS5_EEC5Ev,comdat
	.align 2
	.weak	_ZNSt6vectorINSt7__cxx1112basic_stringIcSt11char_traitsIcESaIcEEESaIS5_EEC2Ev
	.type	_ZNSt6vectorINSt7__cxx1112basic_stringIcSt11char_traitsIcESaIcEEESaIS5_EEC2Ev, @function
_ZNSt6vectorINSt7__cxx1112basic_stringIcSt11char_traitsIcESaIcEEESaIS5_EEC2Ev:
.LFB4492:
	.cfi_startproc
	pushq	%rbp
	.cfi_def_cfa_offset 16
	.cfi_offset 6, -16
	movq	%rsp, %rbp
	.cfi_def_cfa_register 6
	subq	$16, %rsp
	movq	%rdi, -8(%rbp)
	movq	-8(%rbp), %rax
	movq	%rax, %rdi
	call	_ZNSt12_Vector_baseINSt7__cxx1112basic_stringIcSt11char_traitsIcESaIcEEESaIS5_EEC2Ev
	nop
	leave
	.cfi_def_cfa 7, 8
	ret
	.cfi_endproc
.LFE4492:
	.size	_ZNSt6vectorINSt7__cxx1112basic_stringIcSt11char_traitsIcESaIcEEESaIS5_EEC2Ev, .-_ZNSt6vectorINSt7__cxx1112basic_stringIcSt11char_traitsIcESaIcEEESaIS5_EEC2Ev
	.weak	_ZNSt6vectorINSt7__cxx1112basic_stringIcSt11char_traitsIcESaIcEEESaIS5_EEC1Ev
	.set	_ZNSt6vectorINSt7__cxx1112basic_stringIcSt11char_traitsIcESaIcEEESaIS5_EEC1Ev,_ZNSt6vectorINSt7__cxx1112basic_stringIcSt11char_traitsIcESaIcEEESaIS5_EEC2Ev
	.section	.text._ZNSt7__cxx1113match_resultsIN9__gnu_cxx17__normal_iteratorIPKcNS_12basic_stringIcSt11char_traitsIcESaIcEEEEESaINS_9sub_matchISA_EEEED2Ev,"axG",@progbits,_ZNSt7__cxx1113match_resultsIN9__gnu_cxx17__normal_iteratorIPKcNS_12basic_stringIcSt11char_traitsIcESaIcEEEEESaINS_9sub_matchISA_EEEED5Ev,comdat
	.align 2
	.weak	_ZNSt7__cxx1113match_resultsIN9__gnu_cxx17__normal_iteratorIPKcNS_12basic_stringIcSt11char_traitsIcESaIcEEEEESaINS_9sub_matchISA_EEEED2Ev
	.type	_ZNSt7__cxx1113match_resultsIN9__gnu_cxx17__normal_iteratorIPKcNS_12basic_stringIcSt11char_traitsIcESaIcEEEEESaINS_9sub_matchISA_EEEED2Ev, @function
_ZNSt7__cxx1113match_resultsIN9__gnu_cxx17__normal_iteratorIPKcNS_12basic_stringIcSt11char_traitsIcESaIcEEEEESaINS_9sub_matchISA_EEEED2Ev:
.LFB4498:
	.cfi_startproc
	pushq	%rbp
	.cfi_def_cfa_offset 16
	.cfi_offset 6, -16
	movq	%rsp, %rbp
	.cfi_def_cfa_register 6
	subq	$16, %rsp
	movq	%rdi, -8(%rbp)
	movq	-8(%rbp), %rax
	movq	%rax, %rdi
	call	_ZNSt6vectorINSt7__cxx119sub_matchIN9__gnu_cxx17__normal_iteratorIPKcNS0_12basic_stringIcSt11char_traitsIcESaIcEEEEEEESaISC_EED2Ev
	nop
	leave
	.cfi_def_cfa 7, 8
	ret
	.cfi_endproc
.LFE4498:
	.size	_ZNSt7__cxx1113match_resultsIN9__gnu_cxx17__normal_iteratorIPKcNS_12basic_stringIcSt11char_traitsIcESaIcEEEEESaINS_9sub_matchISA_EEEED2Ev, .-_ZNSt7__cxx1113match_resultsIN9__gnu_cxx17__normal_iteratorIPKcNS_12basic_stringIcSt11char_traitsIcESaIcEEEEESaINS_9sub_matchISA_EEEED2Ev
	.weak	_ZNSt7__cxx1113match_resultsIN9__gnu_cxx17__normal_iteratorIPKcNS_12basic_stringIcSt11char_traitsIcESaIcEEEEESaINS_9sub_matchISA_EEEED1Ev
	.set	_ZNSt7__cxx1113match_resultsIN9__gnu_cxx17__normal_iteratorIPKcNS_12basic_stringIcSt11char_traitsIcESaIcEEEEESaINS_9sub_matchISA_EEEED1Ev,_ZNSt7__cxx1113match_resultsIN9__gnu_cxx17__normal_iteratorIPKcNS_12basic_stringIcSt11char_traitsIcESaIcEEEEESaINS_9sub_matchISA_EEEED2Ev
	.section	.text._ZNSt7__cxx1114regex_iteratorIN9__gnu_cxx17__normal_iteratorIPKcNS_12basic_stringIcSt11char_traitsIcESaIcEEEEEcNS_12regex_traitsIcEEED2Ev,"axG",@progbits,_ZNSt7__cxx1114regex_iteratorIN9__gnu_cxx17__normal_iteratorIPKcNS_12basic_stringIcSt11char_traitsIcESaIcEEEEEcNS_12regex_traitsIcEEED5Ev,comdat
	.align 2
	.weak	_ZNSt7__cxx1114regex_iteratorIN9__gnu_cxx17__normal_iteratorIPKcNS_12basic_stringIcSt11char_traitsIcESaIcEEEEEcNS_12regex_traitsIcEEED2Ev
	.type	_ZNSt7__cxx1114regex_iteratorIN9__gnu_cxx17__normal_iteratorIPKcNS_12basic_stringIcSt11char_traitsIcESaIcEEEEEcNS_12regex_traitsIcEEED2Ev, @function
_ZNSt7__cxx1114regex_iteratorIN9__gnu_cxx17__normal_iteratorIPKcNS_12basic_stringIcSt11char_traitsIcESaIcEEEEEcNS_12regex_traitsIcEEED2Ev:
.LFB4500:
	.cfi_startproc
	pushq	%rbp
	.cfi_def_cfa_offset 16
	.cfi_offset 6, -16
	movq	%rsp, %rbp
	.cfi_def_cfa_register 6
	subq	$16, %rsp
	movq	%rdi, -8(%rbp)
	movq	-8(%rbp), %rax
	addq	$32, %rax
	movq	%rax, %rdi
	call	_ZNSt7__cxx1113match_resultsIN9__gnu_cxx17__normal_iteratorIPKcNS_12basic_stringIcSt11char_traitsIcESaIcEEEEESaINS_9sub_matchISA_EEEED1Ev
	nop
	leave
	.cfi_def_cfa 7, 8
	ret
	.cfi_endproc
.LFE4500:
	.size	_ZNSt7__cxx1114regex_iteratorIN9__gnu_cxx17__normal_iteratorIPKcNS_12basic_stringIcSt11char_traitsIcESaIcEEEEEcNS_12regex_traitsIcEEED2Ev, .-_ZNSt7__cxx1114regex_iteratorIN9__gnu_cxx17__normal_iteratorIPKcNS_12basic_stringIcSt11char_traitsIcESaIcEEEEEcNS_12regex_traitsIcEEED2Ev
	.weak	_ZNSt7__cxx1114regex_iteratorIN9__gnu_cxx17__normal_iteratorIPKcNS_12basic_stringIcSt11char_traitsIcESaIcEEEEEcNS_12regex_traitsIcEEED1Ev
	.set	_ZNSt7__cxx1114regex_iteratorIN9__gnu_cxx17__normal_iteratorIPKcNS_12basic_stringIcSt11char_traitsIcESaIcEEEEEcNS_12regex_traitsIcEEED1Ev,_ZNSt7__cxx1114regex_iteratorIN9__gnu_cxx17__normal_iteratorIPKcNS_12basic_stringIcSt11char_traitsIcESaIcEEEEEcNS_12regex_traitsIcEEED2Ev
	.section	.text._ZNSt7__cxx1120regex_token_iteratorIN9__gnu_cxx17__normal_iteratorIPKcNS_12basic_stringIcSt11char_traitsIcESaIcEEEEEcNS_12regex_traitsIcEEED2Ev,"axG",@progbits,_ZNSt7__cxx1120regex_token_iteratorIN9__gnu_cxx17__normal_iteratorIPKcNS_12basic_stringIcSt11char_traitsIcESaIcEEEEEcNS_12regex_traitsIcEEED5Ev,comdat
	.align 2
	.weak	_ZNSt7__cxx1120regex_token_iteratorIN9__gnu_cxx17__normal_iteratorIPKcNS_12basic_stringIcSt11char_traitsIcESaIcEEEEEcNS_12regex_traitsIcEEED2Ev
	.type	_ZNSt7__cxx1120regex_token_iteratorIN9__gnu_cxx17__normal_iteratorIPKcNS_12basic_stringIcSt11char_traitsIcESaIcEEEEEcNS_12regex_traitsIcEEED2Ev, @function
_ZNSt7__cxx1120regex_token_iteratorIN9__gnu_cxx17__normal_iteratorIPKcNS_12basic_stringIcSt11char_traitsIcESaIcEEEEEcNS_12regex_traitsIcEEED2Ev:
.LFB4502:
	.cfi_startproc
	pushq	%rbp
	.cfi_def_cfa_offset 16
	.cfi_offset 6, -16
	movq	%rsp, %rbp
	.cfi_def_cfa_register 6
	subq	$16, %rsp
	movq	%rdi, -8(%rbp)
	movq	-8(%rbp), %rax
	addq	$64, %rax
	movq	%rax, %rdi
	call	_ZNSt6vectorIiSaIiEED1Ev
	movq	-8(%rbp), %rax
	movq	%rax, %rdi
	call	_ZNSt7__cxx1114regex_iteratorIN9__gnu_cxx17__normal_iteratorIPKcNS_12basic_stringIcSt11char_traitsIcESaIcEEEEEcNS_12regex_traitsIcEEED1Ev
	nop
	leave
	.cfi_def_cfa 7, 8
	ret
	.cfi_endproc
.LFE4502:
	.size	_ZNSt7__cxx1120regex_token_iteratorIN9__gnu_cxx17__normal_iteratorIPKcNS_12basic_stringIcSt11char_traitsIcESaIcEEEEEcNS_12regex_traitsIcEEED2Ev, .-_ZNSt7__cxx1120regex_token_iteratorIN9__gnu_cxx17__normal_iteratorIPKcNS_12basic_stringIcSt11char_traitsIcESaIcEEEEEcNS_12regex_traitsIcEEED2Ev
	.weak	_ZNSt7__cxx1120regex_token_iteratorIN9__gnu_cxx17__normal_iteratorIPKcNS_12basic_stringIcSt11char_traitsIcESaIcEEEEEcNS_12regex_traitsIcEEED1Ev
	.set	_ZNSt7__cxx1120regex_token_iteratorIN9__gnu_cxx17__normal_iteratorIPKcNS_12basic_stringIcSt11char_traitsIcESaIcEEEEEcNS_12regex_traitsIcEEED1Ev,_ZNSt7__cxx1120regex_token_iteratorIN9__gnu_cxx17__normal_iteratorIPKcNS_12basic_stringIcSt11char_traitsIcESaIcEEEEEcNS_12regex_traitsIcEEED2Ev
	.section	.text._ZNSt12_Vector_baseINSt7__cxx1112basic_stringIcSt11char_traitsIcESaIcEEESaIS5_EEC2EOS7_,"axG",@progbits,_ZNSt12_Vector_baseINSt7__cxx1112basic_stringIcSt11char_traitsIcESaIcEEESaIS5_EEC5EOS7_,comdat
	.align 2
	.weak	_ZNSt12_Vector_baseINSt7__cxx1112basic_stringIcSt11char_traitsIcESaIcEEESaIS5_EEC2EOS7_
	.type	_ZNSt12_Vector_baseINSt7__cxx1112basic_stringIcSt11char_traitsIcESaIcEEESaIS5_EEC2EOS7_, @function
_ZNSt12_Vector_baseINSt7__cxx1112basic_stringIcSt11char_traitsIcESaIcEEESaIS5_EEC2EOS7_:
.LFB4506:
	.cfi_startproc
	pushq	%rbp
	.cfi_def_cfa_offset 16
	.cfi_offset 6, -16
	movq	%rsp, %rbp
	.cfi_def_cfa_register 6
	subq	$16, %rsp
	movq	%rdi, -8(%rbp)
	movq	%rsi, -16(%rbp)
	movq	-8(%rbp), %rax
	movq	-16(%rbp), %rdx
	movq	%rdx, %rsi
	movq	%rax, %rdi
	call	_ZNSt12_Vector_baseINSt7__cxx1112basic_stringIcSt11char_traitsIcESaIcEEESaIS5_EE12_Vector_implC1EOS8_
	nop
	leave
	.cfi_def_cfa 7, 8
	ret
	.cfi_endproc
.LFE4506:
	.size	_ZNSt12_Vector_baseINSt7__cxx1112basic_stringIcSt11char_traitsIcESaIcEEESaIS5_EEC2EOS7_, .-_ZNSt12_Vector_baseINSt7__cxx1112basic_stringIcSt11char_traitsIcESaIcEEESaIS5_EEC2EOS7_
	.weak	_ZNSt12_Vector_baseINSt7__cxx1112basic_stringIcSt11char_traitsIcESaIcEEESaIS5_EEC1EOS7_
	.set	_ZNSt12_Vector_baseINSt7__cxx1112basic_stringIcSt11char_traitsIcESaIcEEESaIS5_EEC1EOS7_,_ZNSt12_Vector_baseINSt7__cxx1112basic_stringIcSt11char_traitsIcESaIcEEESaIS5_EEC2EOS7_
	.section	.text._ZNSt6vectorINSt7__cxx1112basic_stringIcSt11char_traitsIcESaIcEEESaIS5_EEC2EOS7_,"axG",@progbits,_ZNSt6vectorINSt7__cxx1112basic_stringIcSt11char_traitsIcESaIcEEESaIS5_EEC5EOS7_,comdat
	.align 2
	.weak	_ZNSt6vectorINSt7__cxx1112basic_stringIcSt11char_traitsIcESaIcEEESaIS5_EEC2EOS7_
	.type	_ZNSt6vectorINSt7__cxx1112basic_stringIcSt11char_traitsIcESaIcEEESaIS5_EEC2EOS7_, @function
_ZNSt6vectorINSt7__cxx1112basic_stringIcSt11char_traitsIcESaIcEEESaIS5_EEC2EOS7_:
.LFB4508:
	.cfi_startproc
	pushq	%rbp
	.cfi_def_cfa_offset 16
	.cfi_offset 6, -16
	movq	%rsp, %rbp
	.cfi_def_cfa_register 6
	subq	$16, %rsp
	movq	%rdi, -8(%rbp)
	movq	%rsi, -16(%rbp)
	movq	-8(%rbp), %rax
	movq	-16(%rbp), %rdx
	movq	%rdx, %rsi
	movq	%rax, %rdi
	call	_ZNSt12_Vector_baseINSt7__cxx1112basic_stringIcSt11char_traitsIcESaIcEEESaIS5_EEC2EOS7_
	nop
	leave
	.cfi_def_cfa 7, 8
	ret
	.cfi_endproc
.LFE4508:
	.size	_ZNSt6vectorINSt7__cxx1112basic_stringIcSt11char_traitsIcESaIcEEESaIS5_EEC2EOS7_, .-_ZNSt6vectorINSt7__cxx1112basic_stringIcSt11char_traitsIcESaIcEEESaIS5_EEC2EOS7_
	.weak	_ZNSt6vectorINSt7__cxx1112basic_stringIcSt11char_traitsIcESaIcEEESaIS5_EEC1EOS7_
	.set	_ZNSt6vectorINSt7__cxx1112basic_stringIcSt11char_traitsIcESaIcEEESaIS5_EEC1EOS7_,_ZNSt6vectorINSt7__cxx1112basic_stringIcSt11char_traitsIcESaIcEEESaIS5_EEC2EOS7_
	.section	.rodata
.LC8:
	.string	"["
.LC9:
	.string	"]+"
	.text
	.globl	_Z13LoopParseFuncRKNSt7__cxx1112basic_stringIcSt11char_traitsIcESaIcEEES6_S6_
	.type	_Z13LoopParseFuncRKNSt7__cxx1112basic_stringIcSt11char_traitsIcESaIcEEES6_S6_, @function
_Z13LoopParseFuncRKNSt7__cxx1112basic_stringIcSt11char_traitsIcESaIcEEES6_S6_:
.LFB4483:
	.cfi_startproc
	.cfi_personality 0x9b,DW.ref.__gxx_personality_v0
	.cfi_lsda 0x1b,.LLSDA4483
	pushq	%rbp
	.cfi_def_cfa_offset 16
	.cfi_offset 6, -16
	movq	%rsp, %rbp
	.cfi_def_cfa_register 6
	pushq	%rbx
	subq	$744, %rsp
	.cfi_offset 3, -24
	movq	%rdi, -728(%rbp)
	movq	%rsi, -736(%rbp)
	movq	%rdx, -744(%rbp)
	movq	%rcx, -752(%rbp)
	movq	-728(%rbp), %rax
	movq	%rax, %rdi
	call	_ZNSt6vectorINSt7__cxx1112basic_stringIcSt11char_traitsIcESaIcEEESaIS5_EEC1Ev
	movq	-744(%rbp), %rax
	movq	%rax, %rdi
	call	_ZNKSt7__cxx1112basic_stringIcSt11char_traitsIcESaIcEE5emptyEv@PLT
	testb	%al, %al
	je	.L207
	movq	-752(%rbp), %rax
	movq	%rax, %rdi
	call	_ZNKSt7__cxx1112basic_stringIcSt11char_traitsIcESaIcEE5emptyEv@PLT
	testb	%al, %al
	je	.L207
	movl	$1, %eax
	jmp	.L208
.L207:
	movl	$0, %eax
.L208:
	testb	%al, %al
	je	.L209
	movq	-736(%rbp), %rax
	movq	%rax, -24(%rbp)
	movq	-24(%rbp), %rax
	movq	%rax, %rdi
	call	_ZNKSt7__cxx1112basic_stringIcSt11char_traitsIcESaIcEE5beginEv@PLT
	movq	%rax, -328(%rbp)
	movq	-24(%rbp), %rax
	movq	%rax, %rdi
	call	_ZNKSt7__cxx1112basic_stringIcSt11char_traitsIcESaIcEE3endEv@PLT
	movq	%rax, -336(%rbp)
	jmp	.L210
.L211:
	leaq	-328(%rbp), %rax
	movq	%rax, %rdi
	call	_ZNK9__gnu_cxx17__normal_iteratorIPKcNSt7__cxx1112basic_stringIcSt11char_traitsIcESaIcEEEEdeEv
	movzbl	(%rax), %eax
	movb	%al, -25(%rbp)
	leaq	-273(%rbp), %rax
	movq	%rax, %rdi
	call	_ZNSaIcEC1Ev@PLT
	movsbl	-25(%rbp), %edx
	leaq	-273(%rbp), %rcx
	leaq	-320(%rbp), %rax
	movl	$1, %esi
	movq	%rax, %rdi
.LEHB10:
	call	_ZNSt7__cxx1112basic_stringIcSt11char_traitsIcESaIcEEC1IS3_EEmcRKS3_
.LEHE10:
	leaq	-320(%rbp), %rdx
	movq	-728(%rbp), %rax
	movq	%rdx, %rsi
	movq	%rax, %rdi
.LEHB11:
	call	_ZNSt6vectorINSt7__cxx1112basic_stringIcSt11char_traitsIcESaIcEEESaIS5_EE9push_backEOS5_
.LEHE11:
	leaq	-320(%rbp), %rax
	movq	%rax, %rdi
	call	_ZNSt7__cxx1112basic_stringIcSt11char_traitsIcESaIcEED1Ev@PLT
	leaq	-273(%rbp), %rax
	movq	%rax, %rdi
	call	_ZNSaIcED1Ev@PLT
	leaq	-328(%rbp), %rax
	movq	%rax, %rdi
	call	_ZN9__gnu_cxx17__normal_iteratorIPKcNSt7__cxx1112basic_stringIcSt11char_traitsIcESaIcEEEEppEv
.L210:
	leaq	-336(%rbp), %rdx
	leaq	-328(%rbp), %rax
	movq	%rdx, %rsi
	movq	%rax, %rdi
	call	_ZN9__gnu_cxxneIPKcNSt7__cxx1112basic_stringIcSt11char_traitsIcESaIcEEEEEbRKNS_17__normal_iteratorIT_T0_EESE_
	testb	%al, %al
	jne	.L211
	jmp	.L206
.L209:
	leaq	-272(%rbp), %rax
	movq	-752(%rbp), %rdx
	movq	-744(%rbp), %rcx
	movq	%rcx, %rsi
	movq	%rax, %rdi
.LEHB12:
	call	_ZStplIcSt11char_traitsIcESaIcEENSt7__cxx1112basic_stringIT_T0_T1_EERKS8_SA_
.LEHE12:
	leaq	-720(%rbp), %rax
	leaq	-272(%rbp), %rdx
	movq	%rdx, %rsi
	movq	%rax, %rdi
.LEHB13:
	call	_Z11escapeRegexRKNSt7__cxx1112basic_stringIcSt11char_traitsIcESaIcEEE
.LEHE13:
	leaq	-272(%rbp), %rax
	movq	%rax, %rdi
	call	_ZNSt7__cxx1112basic_stringIcSt11char_traitsIcESaIcEED1Ev@PLT
	leaq	-240(%rbp), %rax
	leaq	-720(%rbp), %rdx
	leaq	.LC8(%rip), %rcx
	movq	%rcx, %rsi
	movq	%rax, %rdi
.LEHB14:
	call	_ZStplIcSt11char_traitsIcESaIcEENSt7__cxx1112basic_stringIT_T0_T1_EEPKS5_RKS8_
.LEHE14:
	leaq	-688(%rbp), %rax
	leaq	-240(%rbp), %rcx
	leaq	.LC9(%rip), %rdx
	movq	%rcx, %rsi
	movq	%rax, %rdi
.LEHB15:
	call	_ZStplIcSt11char_traitsIcESaIcEENSt7__cxx1112basic_stringIT_T0_T1_EEOS8_PKS5_
.LEHE15:
	leaq	-240(%rbp), %rax
	movq	%rax, %rdi
	call	_ZNSt7__cxx1112basic_stringIcSt11char_traitsIcESaIcEED1Ev@PLT
	leaq	-688(%rbp), %rcx
	leaq	-656(%rbp), %rax
	movl	$16, %edx
	movq	%rcx, %rsi
	movq	%rax, %rdi
.LEHB16:
	call	_ZNSt7__cxx1111basic_regexIcNS_12regex_traitsIcEEEC1ISt11char_traitsIcESaIcEEERKNS_12basic_stringIcT_T0_EENSt15regex_constants18syntax_option_typeE
.LEHE16:
	movq	-736(%rbp), %rax
	movq	%rax, %rdi
	call	_ZNKSt7__cxx1112basic_stringIcSt11char_traitsIcESaIcEE3endEv@PLT
	movq	%rax, %rbx
	movq	-736(%rbp), %rax
	movq	%rax, %rdi
	call	_ZNKSt7__cxx1112basic_stringIcSt11char_traitsIcESaIcEE5beginEv@PLT
	movq	%rax, %rsi
	leaq	-656(%rbp), %rdx
	leaq	-624(%rbp), %rax
	movl	$0, %r9d
	movl	$-1, %r8d
	movq	%rdx, %rcx
	movq	%rbx, %rdx
	movq	%rax, %rdi
.LEHB17:
	call	_ZNSt7__cxx1120regex_token_iteratorIN9__gnu_cxx17__normal_iteratorIPKcNS_12basic_stringIcSt11char_traitsIcESaIcEEEEEcNS_12regex_traitsIcEEEC1ESA_SA_RKNS_11basic_regexIcSC_EEiNSt15regex_constants15match_flag_typeE
.LEHE17:
	leaq	-480(%rbp), %rax
	movq	%rax, %rdi
.LEHB18:
	call	_ZNSt7__cxx1120regex_token_iteratorIN9__gnu_cxx17__normal_iteratorIPKcNS_12basic_stringIcSt11char_traitsIcESaIcEEEEEcNS_12regex_traitsIcEEEC1Ev
.LEHE18:
	jmp	.L213
.L214:
	leaq	-176(%rbp), %rax
	leaq	-624(%rbp), %rcx
	movl	$0, %edx
	movq	%rcx, %rsi
	movq	%rax, %rdi
.LEHB19:
	call	_ZNSt7__cxx1120regex_token_iteratorIN9__gnu_cxx17__normal_iteratorIPKcNS_12basic_stringIcSt11char_traitsIcESaIcEEEEEcNS_12regex_traitsIcEEEppEi
.LEHE19:
	leaq	-176(%rbp), %rax
	movq	%rax, %rdi
	call	_ZNKSt7__cxx1120regex_token_iteratorIN9__gnu_cxx17__normal_iteratorIPKcNS_12basic_stringIcSt11char_traitsIcESaIcEEEEEcNS_12regex_traitsIcEEEdeEv
	movq	%rax, %rdx
	leaq	-208(%rbp), %rax
	movq	%rdx, %rsi
	movq	%rax, %rdi
.LEHB20:
	call	_ZNKSt7__cxx119sub_matchIN9__gnu_cxx17__normal_iteratorIPKcNS_12basic_stringIcSt11char_traitsIcESaIcEEEEEEcvS9_Ev
.LEHE20:
	leaq	-208(%rbp), %rdx
	movq	-728(%rbp), %rax
	movq	%rdx, %rsi
	movq	%rax, %rdi
.LEHB21:
	call	_ZNSt6vectorINSt7__cxx1112basic_stringIcSt11char_traitsIcESaIcEEESaIS5_EE9push_backEOS5_
.LEHE21:
	leaq	-208(%rbp), %rax
	movq	%rax, %rdi
	call	_ZNSt7__cxx1112basic_stringIcSt11char_traitsIcESaIcEED1Ev@PLT
	leaq	-176(%rbp), %rax
	movq	%rax, %rdi
	call	_ZNSt7__cxx1120regex_token_iteratorIN9__gnu_cxx17__normal_iteratorIPKcNS_12basic_stringIcSt11char_traitsIcESaIcEEEEEcNS_12regex_traitsIcEEED1Ev
.L213:
	leaq	-480(%rbp), %rdx
	leaq	-624(%rbp), %rax
	movq	%rdx, %rsi
	movq	%rax, %rdi
.LEHB22:
	call	_ZNKSt7__cxx1120regex_token_iteratorIN9__gnu_cxx17__normal_iteratorIPKcNS_12basic_stringIcSt11char_traitsIcESaIcEEEEEcNS_12regex_traitsIcEEEneERKSD_
.LEHE22:
	testb	%al, %al
	jne	.L214
	leaq	-480(%rbp), %rax
	movq	%rax, %rdi
	call	_ZNSt7__cxx1120regex_token_iteratorIN9__gnu_cxx17__normal_iteratorIPKcNS_12basic_stringIcSt11char_traitsIcESaIcEEEEEcNS_12regex_traitsIcEEED1Ev
	leaq	-624(%rbp), %rax
	movq	%rax, %rdi
	call	_ZNSt7__cxx1120regex_token_iteratorIN9__gnu_cxx17__normal_iteratorIPKcNS_12basic_stringIcSt11char_traitsIcESaIcEEEEEcNS_12regex_traitsIcEEED1Ev
	leaq	-656(%rbp), %rax
	movq	%rax, %rdi
	call	_ZNSt7__cxx1111basic_regexIcNS_12regex_traitsIcEEED1Ev
	leaq	-688(%rbp), %rax
	movq	%rax, %rdi
	call	_ZNSt7__cxx1112basic_stringIcSt11char_traitsIcESaIcEED1Ev@PLT
	leaq	-720(%rbp), %rax
	movq	%rax, %rdi
	call	_ZNSt7__cxx1112basic_stringIcSt11char_traitsIcESaIcEED1Ev@PLT
	jmp	.L206
.L229:
	movq	%rax, %rbx
	leaq	-320(%rbp), %rax
	movq	%rax, %rdi
	call	_ZNSt7__cxx1112basic_stringIcSt11char_traitsIcESaIcEED1Ev@PLT
	jmp	.L217
.L228:
	movq	%rax, %rbx
.L217:
	leaq	-273(%rbp), %rax
	movq	%rax, %rdi
	call	_ZNSaIcED1Ev@PLT
	jmp	.L218
.L231:
	movq	%rax, %rbx
	leaq	-272(%rbp), %rax
	movq	%rax, %rdi
	call	_ZNSt7__cxx1112basic_stringIcSt11char_traitsIcESaIcEED1Ev@PLT
	jmp	.L218
.L232:
	movq	%rax, %rbx
	leaq	-240(%rbp), %rax
	movq	%rax, %rdi
	call	_ZNSt7__cxx1112basic_stringIcSt11char_traitsIcESaIcEED1Ev@PLT
	jmp	.L221
.L238:
	movq	%rax, %rbx
	leaq	-208(%rbp), %rax
	movq	%rax, %rdi
	call	_ZNSt7__cxx1112basic_stringIcSt11char_traitsIcESaIcEED1Ev@PLT
	jmp	.L223
.L237:
	movq	%rax, %rbx
.L223:
	leaq	-176(%rbp), %rax
	movq	%rax, %rdi
	call	_ZNSt7__cxx1120regex_token_iteratorIN9__gnu_cxx17__normal_iteratorIPKcNS_12basic_stringIcSt11char_traitsIcESaIcEEEEEcNS_12regex_traitsIcEEED1Ev
	jmp	.L224
.L239:
	movq	%rax, %rbx
.L224:
	leaq	-480(%rbp), %rax
	movq	%rax, %rdi
	call	_ZNSt7__cxx1120regex_token_iteratorIN9__gnu_cxx17__normal_iteratorIPKcNS_12basic_stringIcSt11char_traitsIcESaIcEEEEEcNS_12regex_traitsIcEEED1Ev
	jmp	.L225
.L236:
	movq	%rax, %rbx
.L225:
	leaq	-624(%rbp), %rax
	movq	%rax, %rdi
	call	_ZNSt7__cxx1120regex_token_iteratorIN9__gnu_cxx17__normal_iteratorIPKcNS_12basic_stringIcSt11char_traitsIcESaIcEEEEEcNS_12regex_traitsIcEEED1Ev
	jmp	.L226
.L235:
	movq	%rax, %rbx
.L226:
	leaq	-656(%rbp), %rax
	movq	%rax, %rdi
	call	_ZNSt7__cxx1111basic_regexIcNS_12regex_traitsIcEEED1Ev
	jmp	.L227
.L234:
	movq	%rax, %rbx
.L227:
	leaq	-688(%rbp), %rax
	movq	%rax, %rdi
	call	_ZNSt7__cxx1112basic_stringIcSt11char_traitsIcESaIcEED1Ev@PLT
	jmp	.L221
.L233:
	movq	%rax, %rbx
.L221:
	leaq	-720(%rbp), %rax
	movq	%rax, %rdi
	call	_ZNSt7__cxx1112basic_stringIcSt11char_traitsIcESaIcEED1Ev@PLT
	jmp	.L218
.L230:
	movq	%rax, %rbx
.L218:
	movq	-728(%rbp), %rax
	movq	%rax, %rdi
	call	_ZNSt6vectorINSt7__cxx1112basic_stringIcSt11char_traitsIcESaIcEEESaIS5_EED1Ev
	movq	%rbx, %rax
	movq	%rax, %rdi
.LEHB23:
	call	_Unwind_Resume@PLT
.LEHE23:
.L206:
	movq	-728(%rbp), %rax
	movq	-8(%rbp), %rbx
	leave
	.cfi_def_cfa 7, 8
	ret
	.cfi_endproc
.LFE4483:
	.section	.gcc_except_table
.LLSDA4483:
	.byte	0xff
	.byte	0xff
	.byte	0x1
	.uleb128 .LLSDACSE4483-.LLSDACSB4483
.LLSDACSB4483:
	.uleb128 .LEHB10-.LFB4483
	.uleb128 .LEHE10-.LEHB10
	.uleb128 .L228-.LFB4483
	.uleb128 0
	.uleb128 .LEHB11-.LFB4483
	.uleb128 .LEHE11-.LEHB11
	.uleb128 .L229-.LFB4483
	.uleb128 0
	.uleb128 .LEHB12-.LFB4483
	.uleb128 .LEHE12-.LEHB12
	.uleb128 .L230-.LFB4483
	.uleb128 0
	.uleb128 .LEHB13-.LFB4483
	.uleb128 .LEHE13-.LEHB13
	.uleb128 .L231-.LFB4483
	.uleb128 0
	.uleb128 .LEHB14-.LFB4483
	.uleb128 .LEHE14-.LEHB14
	.uleb128 .L233-.LFB4483
	.uleb128 0
	.uleb128 .LEHB15-.LFB4483
	.uleb128 .LEHE15-.LEHB15
	.uleb128 .L232-.LFB4483
	.uleb128 0
	.uleb128 .LEHB16-.LFB4483
	.uleb128 .LEHE16-.LEHB16
	.uleb128 .L234-.LFB4483
	.uleb128 0
	.uleb128 .LEHB17-.LFB4483
	.uleb128 .LEHE17-.LEHB17
	.uleb128 .L235-.LFB4483
	.uleb128 0
	.uleb128 .LEHB18-.LFB4483
	.uleb128 .LEHE18-.LEHB18
	.uleb128 .L236-.LFB4483
	.uleb128 0
	.uleb128 .LEHB19-.LFB4483
	.uleb128 .LEHE19-.LEHB19
	.uleb128 .L239-.LFB4483
	.uleb128 0
	.uleb128 .LEHB20-.LFB4483
	.uleb128 .LEHE20-.LEHB20
	.uleb128 .L237-.LFB4483
	.uleb128 0
	.uleb128 .LEHB21-.LFB4483
	.uleb128 .LEHE21-.LEHB21
	.uleb128 .L238-.LFB4483
	.uleb128 0
	.uleb128 .LEHB22-.LFB4483
	.uleb128 .LEHE22-.LEHB22
	.uleb128 .L239-.LFB4483
	.uleb128 0
	.uleb128 .LEHB23-.LFB4483
	.uleb128 .LEHE23-.LEHB23
	.uleb128 0
	.uleb128 0
.LLSDACSE4483:
	.text
	.size	_Z13LoopParseFuncRKNSt7__cxx1112basic_stringIcSt11char_traitsIcESaIcEEES6_S6_, .-_Z13LoopParseFuncRKNSt7__cxx1112basic_stringIcSt11char_traitsIcESaIcEEES6_S6_
	.globl	_Z5printPKc
	.type	_Z5printPKc, @function
_Z5printPKc:
.LFB4510:
	.cfi_startproc
	.cfi_personality 0x9b,DW.ref.__gxx_personality_v0
	.cfi_lsda 0x1b,.LLSDA4510
	pushq	%rbp
	.cfi_def_cfa_offset 16
	.cfi_offset 6, -16
	movq	%rsp, %rbp
	.cfi_def_cfa_register 6
	pushq	%rbx
	subq	$72, %rsp
	.cfi_offset 3, -24
	movq	%rdi, -72(%rbp)
	leaq	-17(%rbp), %rax
	movq	%rax, %rdi
	call	_ZNSaIcEC1Ev@PLT
	leaq	-17(%rbp), %rdx
	movq	-72(%rbp), %rcx
	leaq	-64(%rbp), %rax
	movq	%rcx, %rsi
	movq	%rax, %rdi
.LEHB24:
	call	_ZNSt7__cxx1112basic_stringIcSt11char_traitsIcESaIcEEC1IS3_EEPKcRKS3_
.LEHE24:
	leaq	-64(%rbp), %rax
	movq	%rax, %rsi
	leaq	_ZSt4cout(%rip), %rax
	movq	%rax, %rdi
.LEHB25:
	call	_ZStlsIcSt11char_traitsIcESaIcEERSt13basic_ostreamIT_T0_ES7_RKNSt7__cxx1112basic_stringIS4_S5_T1_EE@PLT
	movq	_ZSt4endlIcSt11char_traitsIcEERSt13basic_ostreamIT_T0_ES6_@GOTPCREL(%rip), %rdx
	movq	%rdx, %rsi
	movq	%rax, %rdi
	call	_ZNSolsEPFRSoS_E@PLT
.LEHE25:
	leaq	-64(%rbp), %rax
	movq	%rax, %rdi
	call	_ZNSt7__cxx1112basic_stringIcSt11char_traitsIcESaIcEED1Ev@PLT
	leaq	-17(%rbp), %rax
	movq	%rax, %rdi
	call	_ZNSaIcED1Ev@PLT
	jmp	.L245
.L244:
	movq	%rax, %rbx
	leaq	-64(%rbp), %rax
	movq	%rax, %rdi
	call	_ZNSt7__cxx1112basic_stringIcSt11char_traitsIcESaIcEED1Ev@PLT
	jmp	.L242
.L243:
	movq	%rax, %rbx
.L242:
	leaq	-17(%rbp), %rax
	movq	%rax, %rdi
	call	_ZNSaIcED1Ev@PLT
	movq	%rbx, %rax
	movq	%rax, %rdi
.LEHB26:
	call	_Unwind_Resume@PLT
.LEHE26:
.L245:
	movq	-8(%rbp), %rbx
	leave
	.cfi_def_cfa 7, 8
	ret
	.cfi_endproc
.LFE4510:
	.section	.gcc_except_table
.LLSDA4510:
	.byte	0xff
	.byte	0xff
	.byte	0x1
	.uleb128 .LLSDACSE4510-.LLSDACSB4510
.LLSDACSB4510:
	.uleb128 .LEHB24-.LFB4510
	.uleb128 .LEHE24-.LEHB24
	.uleb128 .L243-.LFB4510
	.uleb128 0
	.uleb128 .LEHB25-.LFB4510
	.uleb128 .LEHE25-.LEHB25
	.uleb128 .L244-.LFB4510
	.uleb128 0
	.uleb128 .LEHB26-.LFB4510
	.uleb128 .LEHE26-.LEHB26
	.uleb128 0
	.uleb128 0
.LLSDACSE4510:
	.text
	.size	_Z5printPKc, .-_Z5printPKc
	.globl	_Z3STRB5cxx11i
	.type	_Z3STRB5cxx11i, @function
_Z3STRB5cxx11i:
.LFB4512:
	.cfi_startproc
	pushq	%rbp
	.cfi_def_cfa_offset 16
	.cfi_offset 6, -16
	movq	%rsp, %rbp
	.cfi_def_cfa_register 6
	subq	$16, %rsp
	movq	%rdi, -8(%rbp)
	movl	%esi, -12(%rbp)
	movq	-8(%rbp), %rax
	movl	-12(%rbp), %edx
	movl	%edx, %esi
	movq	%rax, %rdi
	call	_ZNSt7__cxx119to_stringEi
	movq	-8(%rbp), %rax
	leave
	.cfi_def_cfa 7, 8
	ret
	.cfi_endproc
.LFE4512:
	.size	_Z3STRB5cxx11i, .-_Z3STRB5cxx11i
	.globl	_Z3STRB5cxx11x
	.type	_Z3STRB5cxx11x, @function
_Z3STRB5cxx11x:
.LFB4513:
	.cfi_startproc
	pushq	%rbp
	.cfi_def_cfa_offset 16
	.cfi_offset 6, -16
	movq	%rsp, %rbp
	.cfi_def_cfa_register 6
	subq	$16, %rsp
	movq	%rdi, -8(%rbp)
	movq	%rsi, -16(%rbp)
	movq	-8(%rbp), %rax
	movq	-16(%rbp), %rdx
	movq	%rdx, %rsi
	movq	%rax, %rdi
	call	_ZNSt7__cxx119to_stringEx
	movq	-8(%rbp), %rax
	leave
	.cfi_def_cfa 7, 8
	ret
	.cfi_endproc
.LFE4513:
	.size	_Z3STRB5cxx11x, .-_Z3STRB5cxx11x
	.globl	_Z3STRB5cxx11f
	.type	_Z3STRB5cxx11f, @function
_Z3STRB5cxx11f:
.LFB4514:
	.cfi_startproc
	pushq	%rbp
	.cfi_def_cfa_offset 16
	.cfi_offset 6, -16
	movq	%rsp, %rbp
	.cfi_def_cfa_register 6
	subq	$16, %rsp
	movq	%rdi, -8(%rbp)
	movss	%xmm0, -12(%rbp)
	movq	-8(%rbp), %rax
	movl	-12(%rbp), %edx
	movd	%edx, %xmm0
	movq	%rax, %rdi
	call	_ZNSt7__cxx119to_stringEf
	movq	-8(%rbp), %rax
	leave
	.cfi_def_cfa 7, 8
	ret
	.cfi_endproc
.LFE4514:
	.size	_Z3STRB5cxx11f, .-_Z3STRB5cxx11f
	.globl	_Z3STRB5cxx11d
	.type	_Z3STRB5cxx11d, @function
_Z3STRB5cxx11d:
.LFB4515:
	.cfi_startproc
	pushq	%rbp
	.cfi_def_cfa_offset 16
	.cfi_offset 6, -16
	movq	%rsp, %rbp
	.cfi_def_cfa_register 6
	subq	$16, %rsp
	movq	%rdi, -8(%rbp)
	movsd	%xmm0, -16(%rbp)
	movq	-8(%rbp), %rax
	movq	-16(%rbp), %rdx
	movq	%rdx, %xmm0
	movq	%rax, %rdi
	call	_ZNSt7__cxx119to_stringEd
	movq	-8(%rbp), %rax
	leave
	.cfi_def_cfa 7, 8
	ret
	.cfi_endproc
.LFE4515:
	.size	_Z3STRB5cxx11d, .-_Z3STRB5cxx11d
	.globl	_Z3STRB5cxx11m
	.type	_Z3STRB5cxx11m, @function
_Z3STRB5cxx11m:
.LFB4516:
	.cfi_startproc
	pushq	%rbp
	.cfi_def_cfa_offset 16
	.cfi_offset 6, -16
	movq	%rsp, %rbp
	.cfi_def_cfa_register 6
	subq	$16, %rsp
	movq	%rdi, -8(%rbp)
	movq	%rsi, -16(%rbp)
	movq	-8(%rbp), %rax
	movq	-16(%rbp), %rdx
	movq	%rdx, %rsi
	movq	%rax, %rdi
	call	_ZNSt7__cxx119to_stringEm
	movq	-8(%rbp), %rax
	leave
	.cfi_def_cfa 7, 8
	ret
	.cfi_endproc
.LFE4516:
	.size	_Z3STRB5cxx11m, .-_Z3STRB5cxx11m
	.section	.rodata
.LC10:
	.string	"1"
.LC11:
	.string	"0"
	.text
	.globl	_Z3STRB5cxx11b
	.type	_Z3STRB5cxx11b, @function
_Z3STRB5cxx11b:
.LFB4517:
	.cfi_startproc
	.cfi_personality 0x9b,DW.ref.__gxx_personality_v0
	.cfi_lsda 0x1b,.LLSDA4517
	pushq	%rbp
	.cfi_def_cfa_offset 16
	.cfi_offset 6, -16
	movq	%rsp, %rbp
	.cfi_def_cfa_register 6
	pushq	%rbx
	subq	$40, %rsp
	.cfi_offset 3, -24
	movq	%rdi, -40(%rbp)
	movl	%esi, %eax
	movb	%al, -44(%rbp)
	leaq	-17(%rbp), %rax
	movq	%rax, %rdi
	call	_ZNSaIcEC1Ev@PLT
	cmpb	$0, -44(%rbp)
	je	.L257
	leaq	.LC10(%rip), %rax
	jmp	.L258
.L257:
	leaq	.LC11(%rip), %rax
.L258:
	leaq	-17(%rbp), %rdx
	movq	-40(%rbp), %rcx
	movq	%rax, %rsi
	movq	%rcx, %rdi
.LEHB27:
	call	_ZNSt7__cxx1112basic_stringIcSt11char_traitsIcESaIcEEC1IS3_EEPKcRKS3_
.LEHE27:
	leaq	-17(%rbp), %rax
	movq	%rax, %rdi
	call	_ZNSaIcED1Ev@PLT
	jmp	.L262
.L261:
	movq	%rax, %rbx
	leaq	-17(%rbp), %rax
	movq	%rax, %rdi
	call	_ZNSaIcED1Ev@PLT
	movq	%rbx, %rax
	movq	%rax, %rdi
.LEHB28:
	call	_Unwind_Resume@PLT
.LEHE28:
.L262:
	movq	-40(%rbp), %rax
	movq	-8(%rbp), %rbx
	leave
	.cfi_def_cfa 7, 8
	ret
	.cfi_endproc
.LFE4517:
	.section	.gcc_except_table
.LLSDA4517:
	.byte	0xff
	.byte	0xff
	.byte	0x1
	.uleb128 .LLSDACSE4517-.LLSDACSB4517
.LLSDACSB4517:
	.uleb128 .LEHB27-.LFB4517
	.uleb128 .LEHE27-.LEHB27
	.uleb128 .L261-.LFB4517
	.uleb128 0
	.uleb128 .LEHB28-.LFB4517
	.uleb128 .LEHE28-.LEHB28
	.uleb128 0
	.uleb128 0
.LLSDACSE4517:
	.text
	.size	_Z3STRB5cxx11b, .-_Z3STRB5cxx11b
	.globl	_Z3STRB5cxx11PKc
	.type	_Z3STRB5cxx11PKc, @function
_Z3STRB5cxx11PKc:
.LFB4518:
	.cfi_startproc
	.cfi_personality 0x9b,DW.ref.__gxx_personality_v0
	.cfi_lsda 0x1b,.LLSDA4518
	pushq	%rbp
	.cfi_def_cfa_offset 16
	.cfi_offset 6, -16
	movq	%rsp, %rbp
	.cfi_def_cfa_register 6
	pushq	%rbx
	subq	$40, %rsp
	.cfi_offset 3, -24
	movq	%rdi, -40(%rbp)
	movq	%rsi, -48(%rbp)
	leaq	-17(%rbp), %rax
	movq	%rax, %rdi
	call	_ZNSaIcEC1Ev@PLT
	leaq	-17(%rbp), %rdx
	movq	-48(%rbp), %rcx
	movq	-40(%rbp), %rax
	movq	%rcx, %rsi
	movq	%rax, %rdi
.LEHB29:
	call	_ZNSt7__cxx1112basic_stringIcSt11char_traitsIcESaIcEEC1IS3_EEPKcRKS3_
.LEHE29:
	leaq	-17(%rbp), %rax
	movq	%rax, %rdi
	call	_ZNSaIcED1Ev@PLT
	jmp	.L267
.L266:
	movq	%rax, %rbx
	leaq	-17(%rbp), %rax
	movq	%rax, %rdi
	call	_ZNSaIcED1Ev@PLT
	movq	%rbx, %rax
	movq	%rax, %rdi
.LEHB30:
	call	_Unwind_Resume@PLT
.LEHE30:
.L267:
	movq	-40(%rbp), %rax
	movq	-8(%rbp), %rbx
	leave
	.cfi_def_cfa 7, 8
	ret
	.cfi_endproc
.LFE4518:
	.section	.gcc_except_table
.LLSDA4518:
	.byte	0xff
	.byte	0xff
	.byte	0x1
	.uleb128 .LLSDACSE4518-.LLSDACSB4518
.LLSDACSB4518:
	.uleb128 .LEHB29-.LFB4518
	.uleb128 .LEHE29-.LEHB29
	.uleb128 .L266-.LFB4518
	.uleb128 0
	.uleb128 .LEHB30-.LFB4518
	.uleb128 .LEHE30-.LEHB30
	.uleb128 0
	.uleb128 0
.LLSDACSE4518:
	.text
	.size	_Z3STRB5cxx11PKc, .-_Z3STRB5cxx11PKc
	.globl	_Z5InStrRKNSt7__cxx1112basic_stringIcSt11char_traitsIcESaIcEEES6_
	.type	_Z5InStrRKNSt7__cxx1112basic_stringIcSt11char_traitsIcESaIcEEES6_, @function
_Z5InStrRKNSt7__cxx1112basic_stringIcSt11char_traitsIcESaIcEEES6_:
.LFB4519:
	.cfi_startproc
	pushq	%rbp
	.cfi_def_cfa_offset 16
	.cfi_offset 6, -16
	movq	%rsp, %rbp
	.cfi_def_cfa_register 6
	subq	$32, %rsp
	movq	%rdi, -24(%rbp)
	movq	%rsi, -32(%rbp)
	movq	-32(%rbp), %rcx
	movq	-24(%rbp), %rax
	movl	$0, %edx
	movq	%rcx, %rsi
	movq	%rax, %rdi
	call	_ZNKSt7__cxx1112basic_stringIcSt11char_traitsIcESaIcEE4findERKS4_m@PLT
	movq	%rax, -8(%rbp)
	cmpq	$-1, -8(%rbp)
	je	.L269
	movq	-8(%rbp), %rax
	addl	$1, %eax
	jmp	.L271
.L269:
	movl	$0, %eax
.L271:
	leave
	.cfi_def_cfa 7, 8
	ret
	.cfi_endproc
.LFE4519:
	.size	_Z5InStrRKNSt7__cxx1112basic_stringIcSt11char_traitsIcESaIcEEES6_, .-_Z5InStrRKNSt7__cxx1112basic_stringIcSt11char_traitsIcESaIcEEES6_
	.globl	_Z6StrLenRKNSt7__cxx1112basic_stringIcSt11char_traitsIcESaIcEEE
	.type	_Z6StrLenRKNSt7__cxx1112basic_stringIcSt11char_traitsIcESaIcEEE, @function
_Z6StrLenRKNSt7__cxx1112basic_stringIcSt11char_traitsIcESaIcEEE:
.LFB4520:
	.cfi_startproc
	pushq	%rbp
	.cfi_def_cfa_offset 16
	.cfi_offset 6, -16
	movq	%rsp, %rbp
	.cfi_def_cfa_register 6
	subq	$16, %rsp
	movq	%rdi, -8(%rbp)
	movq	-8(%rbp), %rax
	movq	%rax, %rdi
	call	_ZNKSt7__cxx1112basic_stringIcSt11char_traitsIcESaIcEE6lengthEv@PLT
	leave
	.cfi_def_cfa 7, 8
	ret
	.cfi_endproc
.LFE4520:
	.size	_Z6StrLenRKNSt7__cxx1112basic_stringIcSt11char_traitsIcESaIcEEE, .-_Z6StrLenRKNSt7__cxx1112basic_stringIcSt11char_traitsIcESaIcEEE
	.section	.rodata
.LC12:
	.string	""
	.text
	.globl	_Z3ChrB5cxx11i
	.type	_Z3ChrB5cxx11i, @function
_Z3ChrB5cxx11i:
.LFB4521:
	.cfi_startproc
	.cfi_personality 0x9b,DW.ref.__gxx_personality_v0
	.cfi_lsda 0x1b,.LLSDA4521
	pushq	%rbp
	.cfi_def_cfa_offset 16
	.cfi_offset 6, -16
	movq	%rsp, %rbp
	.cfi_def_cfa_register 6
	pushq	%r13
	pushq	%r12
	pushq	%rbx
	subq	$40, %rsp
	.cfi_offset 13, -24
	.cfi_offset 12, -32
	.cfi_offset 3, -40
	movq	%rdi, -56(%rbp)
	movl	%esi, -60(%rbp)
	movl	$0, %ebx
	movl	$0, %r12d
	cmpl	$0, -60(%rbp)
	js	.L275
	cmpl	$1114111, -60(%rbp)
	jg	.L275
	leaq	-34(%rbp), %rax
	movq	%rax, %rdi
	call	_ZNSaIcEC1Ev@PLT
	movl	$1, %ebx
	movl	-60(%rbp), %eax
	movsbl	%al, %edx
	leaq	-34(%rbp), %rcx
	movq	-56(%rbp), %rax
	movl	$1, %esi
	movq	%rax, %rdi
.LEHB31:
	call	_ZNSt7__cxx1112basic_stringIcSt11char_traitsIcESaIcEEC1IS3_EEmcRKS3_
	jmp	.L276
.L275:
	leaq	-33(%rbp), %rax
	movq	%rax, %rdi
	call	_ZNSaIcEC1Ev@PLT
	movl	$1, %r12d
	leaq	-33(%rbp), %rdx
	movq	-56(%rbp), %rax
	leaq	.LC12(%rip), %rcx
	movq	%rcx, %rsi
	movq	%rax, %rdi
	call	_ZNSt7__cxx1112basic_stringIcSt11char_traitsIcESaIcEEC1IS3_EEPKcRKS3_
.LEHE31:
.L276:
	testb	%r12b, %r12b
	je	.L277
	leaq	-33(%rbp), %rax
	movq	%rax, %rdi
	call	_ZNSaIcED1Ev@PLT
.L277:
	testb	%bl, %bl
	je	.L274
	leaq	-34(%rbp), %rax
	movq	%rax, %rdi
	call	_ZNSaIcED1Ev@PLT
	jmp	.L274
.L283:
	movq	%rax, %r13
	testb	%r12b, %r12b
	je	.L281
	leaq	-33(%rbp), %rax
	movq	%rax, %rdi
	call	_ZNSaIcED1Ev@PLT
.L281:
	movq	%r13, %r12
	testb	%bl, %bl
	je	.L282
	leaq	-34(%rbp), %rax
	movq	%rax, %rdi
	call	_ZNSaIcED1Ev@PLT
.L282:
	movq	%r12, %rax
	movq	%rax, %rdi
.LEHB32:
	call	_Unwind_Resume@PLT
.LEHE32:
.L274:
	movq	-56(%rbp), %rax
	addq	$40, %rsp
	popq	%rbx
	popq	%r12
	popq	%r13
	popq	%rbp
	.cfi_def_cfa 7, 8
	ret
	.cfi_endproc
.LFE4521:
	.section	.gcc_except_table
.LLSDA4521:
	.byte	0xff
	.byte	0xff
	.byte	0x1
	.uleb128 .LLSDACSE4521-.LLSDACSB4521
.LLSDACSB4521:
	.uleb128 .LEHB31-.LFB4521
	.uleb128 .LEHE31-.LEHB31
	.uleb128 .L283-.LFB4521
	.uleb128 0
	.uleb128 .LEHB32-.LFB4521
	.uleb128 .LEHE32-.LEHB32
	.uleb128 0
	.uleb128 0
.LLSDACSE4521:
	.text
	.size	_Z3ChrB5cxx11i, .-_Z3ChrB5cxx11i
	.section	.rodata
.LC13:
	.string	"[\\^$.*+?()\\[\\]{}|\\\\]"
.LC14:
	.string	"\\\\$&"
.LC15:
	.string	"(^|\\W"
.LC16:
	.string	"(?=\\W|$)"
.LC17:
	.string	"$1"
	.text
	.globl	_Z19HTVMmatchStrRrplaceNSt7__cxx1112basic_stringIcSt11char_traitsIcESaIcEEES4_S4_
	.type	_Z19HTVMmatchStrRrplaceNSt7__cxx1112basic_stringIcSt11char_traitsIcESaIcEEES4_S4_, @function
_Z19HTVMmatchStrRrplaceNSt7__cxx1112basic_stringIcSt11char_traitsIcESaIcEEES4_S4_:
.LFB4522:
	.cfi_startproc
	.cfi_personality 0x9b,DW.ref.__gxx_personality_v0
	.cfi_lsda 0x1b,.LLSDA4522
	pushq	%rbp
	.cfi_def_cfa_offset 16
	.cfi_offset 6, -16
	movq	%rsp, %rbp
	.cfi_def_cfa_register 6
	pushq	%rbx
	subq	$232, %rsp
	.cfi_offset 3, -24
	movq	%rdi, -216(%rbp)
	movq	%rsi, -224(%rbp)
	movq	%rdx, -232(%rbp)
	movq	%rcx, -240(%rbp)
	leaq	-80(%rbp), %rax
	movl	$16, %edx
	leaq	.LC13(%rip), %rcx
	movq	%rcx, %rsi
	movq	%rax, %rdi
.LEHB33:
	call	_ZNSt7__cxx1111basic_regexIcNS_12regex_traitsIcEEEC1EPKcNSt15regex_constants18syntax_option_typeE
.LEHE33:
	leaq	-112(%rbp), %rax
	leaq	-80(%rbp), %rdx
	movq	-232(%rbp), %rsi
	movl	$0, %r8d
	leaq	.LC14(%rip), %rcx
	movq	%rax, %rdi
.LEHB34:
	call	_ZSt13regex_replaceINSt7__cxx1112regex_traitsIcEEcSt11char_traitsIcESaIcEENS0_12basic_stringIT0_T1_T2_EERKSA_RKNS0_11basic_regexIS7_T_EEPKS7_NSt15regex_constants15match_flag_typeE
.LEHE34:
	leaq	-144(%rbp), %rax
	leaq	-112(%rbp), %rdx
	leaq	.LC15(%rip), %rcx
	movq	%rcx, %rsi
	movq	%rax, %rdi
.LEHB35:
	call	_ZStplIcSt11char_traitsIcESaIcEENSt7__cxx1112basic_stringIT_T0_T1_EEPKS5_OS8_
.LEHE35:
	leaq	-176(%rbp), %rax
	leaq	-144(%rbp), %rcx
	leaq	.LC16(%rip), %rdx
	movq	%rcx, %rsi
	movq	%rax, %rdi
.LEHB36:
	call	_ZStplIcSt11char_traitsIcESaIcEENSt7__cxx1112basic_stringIT_T0_T1_EEOS8_PKS5_
.LEHE36:
	leaq	-176(%rbp), %rcx
	leaq	-208(%rbp), %rax
	movl	$16, %edx
	movq	%rcx, %rsi
	movq	%rax, %rdi
.LEHB37:
	call	_ZNSt7__cxx1111basic_regexIcNS_12regex_traitsIcEEEC1ISt11char_traitsIcESaIcEEERKNS_12basic_stringIcT_T0_EENSt15regex_constants18syntax_option_typeE
.LEHE37:
	leaq	-176(%rbp), %rax
	movq	%rax, %rdi
	call	_ZNSt7__cxx1112basic_stringIcSt11char_traitsIcESaIcEED1Ev@PLT
	leaq	-144(%rbp), %rax
	movq	%rax, %rdi
	call	_ZNSt7__cxx1112basic_stringIcSt11char_traitsIcESaIcEED1Ev@PLT
	leaq	-112(%rbp), %rax
	movq	%rax, %rdi
	call	_ZNSt7__cxx1112basic_stringIcSt11char_traitsIcESaIcEED1Ev@PLT
	leaq	-80(%rbp), %rax
	movq	%rax, %rdi
	call	_ZNSt7__cxx1111basic_regexIcNS_12regex_traitsIcEEED1Ev
	leaq	-48(%rbp), %rax
	movq	-240(%rbp), %rdx
	leaq	.LC17(%rip), %rcx
	movq	%rcx, %rsi
	movq	%rax, %rdi
.LEHB38:
	call	_ZStplIcSt11char_traitsIcESaIcEENSt7__cxx1112basic_stringIT_T0_T1_EEPKS5_RKS8_
.LEHE38:
	movq	-216(%rbp), %rax
	leaq	-48(%rbp), %rcx
	leaq	-208(%rbp), %rdx
	movq	-224(%rbp), %rsi
	movl	$0, %r8d
	movq	%rax, %rdi
.LEHB39:
	call	_ZSt13regex_replaceINSt7__cxx1112regex_traitsIcEEcSt11char_traitsIcESaIcES4_S5_ENS0_12basic_stringIT0_T1_T2_EERKSA_RKNS0_11basic_regexIS7_T_EERKNS6_IS7_T3_T4_EENSt15regex_constants15match_flag_typeE
.LEHE39:
	nop
	leaq	-48(%rbp), %rax
	movq	%rax, %rdi
	call	_ZNSt7__cxx1112basic_stringIcSt11char_traitsIcESaIcEED1Ev@PLT
	leaq	-208(%rbp), %rax
	movq	%rax, %rdi
	call	_ZNSt7__cxx1111basic_regexIcNS_12regex_traitsIcEEED1Ev
	jmp	.L298
.L295:
	movq	%rax, %rbx
	leaq	-176(%rbp), %rax
	movq	%rax, %rdi
	call	_ZNSt7__cxx1112basic_stringIcSt11char_traitsIcESaIcEED1Ev@PLT
	jmp	.L287
.L294:
	movq	%rax, %rbx
.L287:
	leaq	-144(%rbp), %rax
	movq	%rax, %rdi
	call	_ZNSt7__cxx1112basic_stringIcSt11char_traitsIcESaIcEED1Ev@PLT
	jmp	.L288
.L293:
	movq	%rax, %rbx
.L288:
	leaq	-112(%rbp), %rax
	movq	%rax, %rdi
	call	_ZNSt7__cxx1112basic_stringIcSt11char_traitsIcESaIcEED1Ev@PLT
	jmp	.L289
.L292:
	movq	%rax, %rbx
.L289:
	leaq	-80(%rbp), %rax
	movq	%rax, %rdi
	call	_ZNSt7__cxx1111basic_regexIcNS_12regex_traitsIcEEED1Ev
	movq	%rbx, %rax
	movq	%rax, %rdi
.LEHB40:
	call	_Unwind_Resume@PLT
.L297:
	movq	%rax, %rbx
	leaq	-48(%rbp), %rax
	movq	%rax, %rdi
	call	_ZNSt7__cxx1112basic_stringIcSt11char_traitsIcESaIcEED1Ev@PLT
	jmp	.L291
.L296:
	movq	%rax, %rbx
.L291:
	leaq	-208(%rbp), %rax
	movq	%rax, %rdi
	call	_ZNSt7__cxx1111basic_regexIcNS_12regex_traitsIcEEED1Ev
	movq	%rbx, %rax
	movq	%rax, %rdi
	call	_Unwind_Resume@PLT
.LEHE40:
.L298:
	movq	-216(%rbp), %rax
	movq	-8(%rbp), %rbx
	leave
	.cfi_def_cfa 7, 8
	ret
	.cfi_endproc
.LFE4522:
	.section	.gcc_except_table
.LLSDA4522:
	.byte	0xff
	.byte	0xff
	.byte	0x1
	.uleb128 .LLSDACSE4522-.LLSDACSB4522
.LLSDACSB4522:
	.uleb128 .LEHB33-.LFB4522
	.uleb128 .LEHE33-.LEHB33
	.uleb128 0
	.uleb128 0
	.uleb128 .LEHB34-.LFB4522
	.uleb128 .LEHE34-.LEHB34
	.uleb128 .L292-.LFB4522
	.uleb128 0
	.uleb128 .LEHB35-.LFB4522
	.uleb128 .LEHE35-.LEHB35
	.uleb128 .L293-.LFB4522
	.uleb128 0
	.uleb128 .LEHB36-.LFB4522
	.uleb128 .LEHE36-.LEHB36
	.uleb128 .L294-.LFB4522
	.uleb128 0
	.uleb128 .LEHB37-.LFB4522
	.uleb128 .LEHE37-.LEHB37
	.uleb128 .L295-.LFB4522
	.uleb128 0
	.uleb128 .LEHB38-.LFB4522
	.uleb128 .LEHE38-.LEHB38
	.uleb128 .L296-.LFB4522
	.uleb128 0
	.uleb128 .LEHB39-.LFB4522
	.uleb128 .LEHE39-.LEHB39
	.uleb128 .L297-.LFB4522
	.uleb128 0
	.uleb128 .LEHB40-.LFB4522
	.uleb128 .LEHE40-.LEHB40
	.uleb128 0
	.uleb128 0
.LLSDACSE4522:
	.text
	.size	_Z19HTVMmatchStrRrplaceNSt7__cxx1112basic_stringIcSt11char_traitsIcESaIcEEES4_S4_, .-_Z19HTVMmatchStrRrplaceNSt7__cxx1112basic_stringIcSt11char_traitsIcESaIcEEES4_S4_
	.section	.rodata
.LC18:
	.string	"hello"
.LC19:
	.string	"hi"
.LC20:
	.string	"hi man"
.LC21:
	.string	"woman"
.LC22:
	.string	"man"
.LC23:
	.string	".mello"
.LC24:
	.string	".hello"
	.align 8
.LC25:
	.string	"func1(man.hello()) func1(man.hello())"
.LC26:
	.string	"+"
.LC27:
	.string	"plus plus"
	.align 8
.LC28:
	.string	"func1(var1 plus plus var2 plus plus var34)"
.LC29:
	.string	".push()"
.LC30:
	.string	".add()"
.LC31:
	.string	"var1.add() + var12.add()"
.LC32:
	.string	".pu()"
	.text
	.globl	main
	.type	main, @function
main:
.LFB4523:
	.cfi_startproc
	.cfi_personality 0x9b,DW.ref.__gxx_personality_v0
	.cfi_lsda 0x1b,.LLSDA4523
	pushq	%rbp
	.cfi_def_cfa_offset 16
	.cfi_offset 6, -16
	movq	%rsp, %rbp
	.cfi_def_cfa_register 6
	pushq	%rbx
	subq	$1080, %rsp
	.cfi_offset 3, -24
	movl	%edi, -1076(%rbp)
	movq	%rsi, -1088(%rbp)
	leaq	-993(%rbp), %rax
	movq	%rax, %rdi
	call	_ZNSaIcEC1Ev@PLT
	leaq	-993(%rbp), %rdx
	leaq	-1040(%rbp), %rax
	leaq	.LC18(%rip), %rcx
	movq	%rcx, %rsi
	movq	%rax, %rdi
.LEHB41:
	call	_ZNSt7__cxx1112basic_stringIcSt11char_traitsIcESaIcEEC1IS3_EEPKcRKS3_
.LEHE41:
	leaq	-945(%rbp), %rax
	movq	%rax, %rdi
	call	_ZNSaIcEC1Ev@PLT
	leaq	-945(%rbp), %rdx
	leaq	-992(%rbp), %rax
	leaq	.LC19(%rip), %rcx
	movq	%rcx, %rsi
	movq	%rax, %rdi
.LEHB42:
	call	_ZNSt7__cxx1112basic_stringIcSt11char_traitsIcESaIcEEC1IS3_EEPKcRKS3_
.LEHE42:
	leaq	-897(%rbp), %rax
	movq	%rax, %rdi
	call	_ZNSaIcEC1Ev@PLT
	leaq	-897(%rbp), %rdx
	leaq	-944(%rbp), %rax
	leaq	.LC20(%rip), %rcx
	movq	%rcx, %rsi
	movq	%rax, %rdi
.LEHB43:
	call	_ZNSt7__cxx1112basic_stringIcSt11char_traitsIcESaIcEEC1IS3_EEPKcRKS3_
.LEHE43:
	leaq	-1072(%rbp), %rax
	leaq	-1040(%rbp), %rcx
	leaq	-992(%rbp), %rdx
	leaq	-944(%rbp), %rsi
	movq	%rax, %rdi
.LEHB44:
	call	_Z19HTVMmatchStrRrplaceNSt7__cxx1112basic_stringIcSt11char_traitsIcESaIcEEES4_S4_
.LEHE44:
	leaq	-1072(%rbp), %rax
	movq	%rax, %rdi
.LEHB45:
	call	_Z5printINSt7__cxx1112basic_stringIcSt11char_traitsIcESaIcEEEEvRKT_
.LEHE45:
	leaq	-1072(%rbp), %rax
	movq	%rax, %rdi
	call	_ZNSt7__cxx1112basic_stringIcSt11char_traitsIcESaIcEED1Ev@PLT
	leaq	-944(%rbp), %rax
	movq	%rax, %rdi
	call	_ZNSt7__cxx1112basic_stringIcSt11char_traitsIcESaIcEED1Ev@PLT
	leaq	-897(%rbp), %rax
	movq	%rax, %rdi
	call	_ZNSaIcED1Ev@PLT
	leaq	-992(%rbp), %rax
	movq	%rax, %rdi
	call	_ZNSt7__cxx1112basic_stringIcSt11char_traitsIcESaIcEED1Ev@PLT
	leaq	-945(%rbp), %rax
	movq	%rax, %rdi
	call	_ZNSaIcED1Ev@PLT
	leaq	-1040(%rbp), %rax
	movq	%rax, %rdi
	call	_ZNSt7__cxx1112basic_stringIcSt11char_traitsIcESaIcEED1Ev@PLT
	leaq	-993(%rbp), %rax
	movq	%rax, %rdi
	call	_ZNSaIcED1Ev@PLT
	leaq	-817(%rbp), %rax
	movq	%rax, %rdi
	call	_ZNSaIcEC1Ev@PLT
	leaq	-817(%rbp), %rdx
	leaq	-864(%rbp), %rax
	leaq	.LC21(%rip), %rcx
	movq	%rcx, %rsi
	movq	%rax, %rdi
.LEHB46:
	call	_ZNSt7__cxx1112basic_stringIcSt11char_traitsIcESaIcEEC1IS3_EEPKcRKS3_
.LEHE46:
	leaq	-769(%rbp), %rax
	movq	%rax, %rdi
	call	_ZNSaIcEC1Ev@PLT
	leaq	-769(%rbp), %rdx
	leaq	-816(%rbp), %rax
	leaq	.LC22(%rip), %rcx
	movq	%rcx, %rsi
	movq	%rax, %rdi
.LEHB47:
	call	_ZNSt7__cxx1112basic_stringIcSt11char_traitsIcESaIcEEC1IS3_EEPKcRKS3_
.LEHE47:
	leaq	-721(%rbp), %rax
	movq	%rax, %rdi
	call	_ZNSaIcEC1Ev@PLT
	leaq	-721(%rbp), %rdx
	leaq	-768(%rbp), %rax
	leaq	.LC20(%rip), %rcx
	movq	%rcx, %rsi
	movq	%rax, %rdi
.LEHB48:
	call	_ZNSt7__cxx1112basic_stringIcSt11char_traitsIcESaIcEEC1IS3_EEPKcRKS3_
.LEHE48:
	leaq	-896(%rbp), %rax
	leaq	-864(%rbp), %rcx
	leaq	-816(%rbp), %rdx
	leaq	-768(%rbp), %rsi
	movq	%rax, %rdi
.LEHB49:
	call	_Z19HTVMmatchStrRrplaceNSt7__cxx1112basic_stringIcSt11char_traitsIcESaIcEEES4_S4_
.LEHE49:
	leaq	-896(%rbp), %rax
	movq	%rax, %rdi
.LEHB50:
	call	_Z5printINSt7__cxx1112basic_stringIcSt11char_traitsIcESaIcEEEEvRKT_
.LEHE50:
	leaq	-896(%rbp), %rax
	movq	%rax, %rdi
	call	_ZNSt7__cxx1112basic_stringIcSt11char_traitsIcESaIcEED1Ev@PLT
	leaq	-768(%rbp), %rax
	movq	%rax, %rdi
	call	_ZNSt7__cxx1112basic_stringIcSt11char_traitsIcESaIcEED1Ev@PLT
	leaq	-721(%rbp), %rax
	movq	%rax, %rdi
	call	_ZNSaIcED1Ev@PLT
	leaq	-816(%rbp), %rax
	movq	%rax, %rdi
	call	_ZNSt7__cxx1112basic_stringIcSt11char_traitsIcESaIcEED1Ev@PLT
	leaq	-769(%rbp), %rax
	movq	%rax, %rdi
	call	_ZNSaIcED1Ev@PLT
	leaq	-864(%rbp), %rax
	movq	%rax, %rdi
	call	_ZNSt7__cxx1112basic_stringIcSt11char_traitsIcESaIcEED1Ev@PLT
	leaq	-817(%rbp), %rax
	movq	%rax, %rdi
	call	_ZNSaIcED1Ev@PLT
	leaq	-641(%rbp), %rax
	movq	%rax, %rdi
	call	_ZNSaIcEC1Ev@PLT
	leaq	-641(%rbp), %rdx
	leaq	-688(%rbp), %rax
	leaq	.LC23(%rip), %rcx
	movq	%rcx, %rsi
	movq	%rax, %rdi
.LEHB51:
	call	_ZNSt7__cxx1112basic_stringIcSt11char_traitsIcESaIcEEC1IS3_EEPKcRKS3_
.LEHE51:
	leaq	-593(%rbp), %rax
	movq	%rax, %rdi
	call	_ZNSaIcEC1Ev@PLT
	leaq	-593(%rbp), %rdx
	leaq	-640(%rbp), %rax
	leaq	.LC24(%rip), %rcx
	movq	%rcx, %rsi
	movq	%rax, %rdi
.LEHB52:
	call	_ZNSt7__cxx1112basic_stringIcSt11char_traitsIcESaIcEEC1IS3_EEPKcRKS3_
.LEHE52:
	leaq	-545(%rbp), %rax
	movq	%rax, %rdi
	call	_ZNSaIcEC1Ev@PLT
	leaq	-545(%rbp), %rdx
	leaq	-592(%rbp), %rax
	leaq	.LC25(%rip), %rcx
	movq	%rcx, %rsi
	movq	%rax, %rdi
.LEHB53:
	call	_ZNSt7__cxx1112basic_stringIcSt11char_traitsIcESaIcEEC1IS3_EEPKcRKS3_
.LEHE53:
	leaq	-720(%rbp), %rax
	leaq	-688(%rbp), %rcx
	leaq	-640(%rbp), %rdx
	leaq	-592(%rbp), %rsi
	movq	%rax, %rdi
.LEHB54:
	call	_Z19HTVMmatchStrRrplaceNSt7__cxx1112basic_stringIcSt11char_traitsIcESaIcEEES4_S4_
.LEHE54:
	leaq	-720(%rbp), %rax
	movq	%rax, %rdi
.LEHB55:
	call	_Z5printINSt7__cxx1112basic_stringIcSt11char_traitsIcESaIcEEEEvRKT_
.LEHE55:
	leaq	-720(%rbp), %rax
	movq	%rax, %rdi
	call	_ZNSt7__cxx1112basic_stringIcSt11char_traitsIcESaIcEED1Ev@PLT
	leaq	-592(%rbp), %rax
	movq	%rax, %rdi
	call	_ZNSt7__cxx1112basic_stringIcSt11char_traitsIcESaIcEED1Ev@PLT
	leaq	-545(%rbp), %rax
	movq	%rax, %rdi
	call	_ZNSaIcED1Ev@PLT
	leaq	-640(%rbp), %rax
	movq	%rax, %rdi
	call	_ZNSt7__cxx1112basic_stringIcSt11char_traitsIcESaIcEED1Ev@PLT
	leaq	-593(%rbp), %rax
	movq	%rax, %rdi
	call	_ZNSaIcED1Ev@PLT
	leaq	-688(%rbp), %rax
	movq	%rax, %rdi
	call	_ZNSt7__cxx1112basic_stringIcSt11char_traitsIcESaIcEED1Ev@PLT
	leaq	-641(%rbp), %rax
	movq	%rax, %rdi
	call	_ZNSaIcED1Ev@PLT
	leaq	-465(%rbp), %rax
	movq	%rax, %rdi
	call	_ZNSaIcEC1Ev@PLT
	leaq	-465(%rbp), %rdx
	leaq	-512(%rbp), %rax
	leaq	.LC26(%rip), %rcx
	movq	%rcx, %rsi
	movq	%rax, %rdi
.LEHB56:
	call	_ZNSt7__cxx1112basic_stringIcSt11char_traitsIcESaIcEEC1IS3_EEPKcRKS3_
.LEHE56:
	leaq	-417(%rbp), %rax
	movq	%rax, %rdi
	call	_ZNSaIcEC1Ev@PLT
	leaq	-417(%rbp), %rdx
	leaq	-464(%rbp), %rax
	leaq	.LC27(%rip), %rcx
	movq	%rcx, %rsi
	movq	%rax, %rdi
.LEHB57:
	call	_ZNSt7__cxx1112basic_stringIcSt11char_traitsIcESaIcEEC1IS3_EEPKcRKS3_
.LEHE57:
	leaq	-369(%rbp), %rax
	movq	%rax, %rdi
	call	_ZNSaIcEC1Ev@PLT
	leaq	-369(%rbp), %rdx
	leaq	-416(%rbp), %rax
	leaq	.LC28(%rip), %rcx
	movq	%rcx, %rsi
	movq	%rax, %rdi
.LEHB58:
	call	_ZNSt7__cxx1112basic_stringIcSt11char_traitsIcESaIcEEC1IS3_EEPKcRKS3_
.LEHE58:
	leaq	-544(%rbp), %rax
	leaq	-512(%rbp), %rcx
	leaq	-464(%rbp), %rdx
	leaq	-416(%rbp), %rsi
	movq	%rax, %rdi
.LEHB59:
	call	_Z19HTVMmatchStrRrplaceNSt7__cxx1112basic_stringIcSt11char_traitsIcESaIcEEES4_S4_
.LEHE59:
	leaq	-544(%rbp), %rax
	movq	%rax, %rdi
.LEHB60:
	call	_Z5printINSt7__cxx1112basic_stringIcSt11char_traitsIcESaIcEEEEvRKT_
.LEHE60:
	leaq	-544(%rbp), %rax
	movq	%rax, %rdi
	call	_ZNSt7__cxx1112basic_stringIcSt11char_traitsIcESaIcEED1Ev@PLT
	leaq	-416(%rbp), %rax
	movq	%rax, %rdi
	call	_ZNSt7__cxx1112basic_stringIcSt11char_traitsIcESaIcEED1Ev@PLT
	leaq	-369(%rbp), %rax
	movq	%rax, %rdi
	call	_ZNSaIcED1Ev@PLT
	leaq	-464(%rbp), %rax
	movq	%rax, %rdi
	call	_ZNSt7__cxx1112basic_stringIcSt11char_traitsIcESaIcEED1Ev@PLT
	leaq	-417(%rbp), %rax
	movq	%rax, %rdi
	call	_ZNSaIcED1Ev@PLT
	leaq	-512(%rbp), %rax
	movq	%rax, %rdi
	call	_ZNSt7__cxx1112basic_stringIcSt11char_traitsIcESaIcEED1Ev@PLT
	leaq	-465(%rbp), %rax
	movq	%rax, %rdi
	call	_ZNSaIcED1Ev@PLT
	leaq	-289(%rbp), %rax
	movq	%rax, %rdi
	call	_ZNSaIcEC1Ev@PLT
	leaq	-289(%rbp), %rdx
	leaq	-336(%rbp), %rax
	leaq	.LC29(%rip), %rcx
	movq	%rcx, %rsi
	movq	%rax, %rdi
.LEHB61:
	call	_ZNSt7__cxx1112basic_stringIcSt11char_traitsIcESaIcEEC1IS3_EEPKcRKS3_
.LEHE61:
	leaq	-241(%rbp), %rax
	movq	%rax, %rdi
	call	_ZNSaIcEC1Ev@PLT
	leaq	-241(%rbp), %rdx
	leaq	-288(%rbp), %rax
	leaq	.LC30(%rip), %rcx
	movq	%rcx, %rsi
	movq	%rax, %rdi
.LEHB62:
	call	_ZNSt7__cxx1112basic_stringIcSt11char_traitsIcESaIcEEC1IS3_EEPKcRKS3_
.LEHE62:
	leaq	-193(%rbp), %rax
	movq	%rax, %rdi
	call	_ZNSaIcEC1Ev@PLT
	leaq	-193(%rbp), %rdx
	leaq	-240(%rbp), %rax
	leaq	.LC31(%rip), %rcx
	movq	%rcx, %rsi
	movq	%rax, %rdi
.LEHB63:
	call	_ZNSt7__cxx1112basic_stringIcSt11char_traitsIcESaIcEEC1IS3_EEPKcRKS3_
.LEHE63:
	leaq	-368(%rbp), %rax
	leaq	-336(%rbp), %rcx
	leaq	-288(%rbp), %rdx
	leaq	-240(%rbp), %rsi
	movq	%rax, %rdi
.LEHB64:
	call	_Z19HTVMmatchStrRrplaceNSt7__cxx1112basic_stringIcSt11char_traitsIcESaIcEEES4_S4_
.LEHE64:
	leaq	-368(%rbp), %rax
	movq	%rax, %rdi
.LEHB65:
	call	_Z5printINSt7__cxx1112basic_stringIcSt11char_traitsIcESaIcEEEEvRKT_
.LEHE65:
	leaq	-368(%rbp), %rax
	movq	%rax, %rdi
	call	_ZNSt7__cxx1112basic_stringIcSt11char_traitsIcESaIcEED1Ev@PLT
	leaq	-240(%rbp), %rax
	movq	%rax, %rdi
	call	_ZNSt7__cxx1112basic_stringIcSt11char_traitsIcESaIcEED1Ev@PLT
	leaq	-193(%rbp), %rax
	movq	%rax, %rdi
	call	_ZNSaIcED1Ev@PLT
	leaq	-288(%rbp), %rax
	movq	%rax, %rdi
	call	_ZNSt7__cxx1112basic_stringIcSt11char_traitsIcESaIcEED1Ev@PLT
	leaq	-241(%rbp), %rax
	movq	%rax, %rdi
	call	_ZNSaIcED1Ev@PLT
	leaq	-336(%rbp), %rax
	movq	%rax, %rdi
	call	_ZNSt7__cxx1112basic_stringIcSt11char_traitsIcESaIcEED1Ev@PLT
	leaq	-289(%rbp), %rax
	movq	%rax, %rdi
	call	_ZNSaIcED1Ev@PLT
	leaq	-113(%rbp), %rax
	movq	%rax, %rdi
	call	_ZNSaIcEC1Ev@PLT
	leaq	-113(%rbp), %rdx
	leaq	-160(%rbp), %rax
	leaq	.LC32(%rip), %rcx
	movq	%rcx, %rsi
	movq	%rax, %rdi
.LEHB66:
	call	_ZNSt7__cxx1112basic_stringIcSt11char_traitsIcESaIcEEC1IS3_EEPKcRKS3_
.LEHE66:
	leaq	-65(%rbp), %rax
	movq	%rax, %rdi
	call	_ZNSaIcEC1Ev@PLT
	leaq	-65(%rbp), %rdx
	leaq	-112(%rbp), %rax
	leaq	.LC30(%rip), %rcx
	movq	%rcx, %rsi
	movq	%rax, %rdi
.LEHB67:
	call	_ZNSt7__cxx1112basic_stringIcSt11char_traitsIcESaIcEEC1IS3_EEPKcRKS3_
.LEHE67:
	leaq	-17(%rbp), %rax
	movq	%rax, %rdi
	call	_ZNSaIcEC1Ev@PLT
	leaq	-17(%rbp), %rdx
	leaq	-64(%rbp), %rax
	leaq	.LC31(%rip), %rcx
	movq	%rcx, %rsi
	movq	%rax, %rdi
.LEHB68:
	call	_ZNSt7__cxx1112basic_stringIcSt11char_traitsIcESaIcEEC1IS3_EEPKcRKS3_
.LEHE68:
	leaq	-192(%rbp), %rax
	leaq	-160(%rbp), %rcx
	leaq	-112(%rbp), %rdx
	leaq	-64(%rbp), %rsi
	movq	%rax, %rdi
.LEHB69:
	call	_Z19HTVMmatchStrRrplaceNSt7__cxx1112basic_stringIcSt11char_traitsIcESaIcEEES4_S4_
.LEHE69:
	leaq	-192(%rbp), %rax
	movq	%rax, %rdi
.LEHB70:
	call	_Z5printINSt7__cxx1112basic_stringIcSt11char_traitsIcESaIcEEEEvRKT_
.LEHE70:
	leaq	-192(%rbp), %rax
	movq	%rax, %rdi
	call	_ZNSt7__cxx1112basic_stringIcSt11char_traitsIcESaIcEED1Ev@PLT
	leaq	-64(%rbp), %rax
	movq	%rax, %rdi
	call	_ZNSt7__cxx1112basic_stringIcSt11char_traitsIcESaIcEED1Ev@PLT
	leaq	-17(%rbp), %rax
	movq	%rax, %rdi
	call	_ZNSaIcED1Ev@PLT
	leaq	-112(%rbp), %rax
	movq	%rax, %rdi
	call	_ZNSt7__cxx1112basic_stringIcSt11char_traitsIcESaIcEED1Ev@PLT
	leaq	-65(%rbp), %rax
	movq	%rax, %rdi
	call	_ZNSaIcED1Ev@PLT
	leaq	-160(%rbp), %rax
	movq	%rax, %rdi
	call	_ZNSt7__cxx1112basic_stringIcSt11char_traitsIcESaIcEED1Ev@PLT
	leaq	-113(%rbp), %rax
	movq	%rax, %rdi
	call	_ZNSaIcED1Ev@PLT
	movl	$0, %eax
	jmp	.L361
.L335:
	movq	%rax, %rbx
	leaq	-1072(%rbp), %rax
	movq	%rax, %rdi
	call	_ZNSt7__cxx1112basic_stringIcSt11char_traitsIcESaIcEED1Ev@PLT
	jmp	.L302
.L334:
	movq	%rax, %rbx
.L302:
	leaq	-944(%rbp), %rax
	movq	%rax, %rdi
	call	_ZNSt7__cxx1112basic_stringIcSt11char_traitsIcESaIcEED1Ev@PLT
	jmp	.L303
.L333:
	movq	%rax, %rbx
.L303:
	leaq	-897(%rbp), %rax
	movq	%rax, %rdi
	call	_ZNSaIcED1Ev@PLT
	leaq	-992(%rbp), %rax
	movq	%rax, %rdi
	call	_ZNSt7__cxx1112basic_stringIcSt11char_traitsIcESaIcEED1Ev@PLT
	jmp	.L304
.L332:
	movq	%rax, %rbx
.L304:
	leaq	-945(%rbp), %rax
	movq	%rax, %rdi
	call	_ZNSaIcED1Ev@PLT
	leaq	-1040(%rbp), %rax
	movq	%rax, %rdi
	call	_ZNSt7__cxx1112basic_stringIcSt11char_traitsIcESaIcEED1Ev@PLT
	jmp	.L305
.L331:
	movq	%rax, %rbx
.L305:
	leaq	-993(%rbp), %rax
	movq	%rax, %rdi
	call	_ZNSaIcED1Ev@PLT
	movq	%rbx, %rax
	movq	%rax, %rdi
.LEHB71:
	call	_Unwind_Resume@PLT
.L340:
	movq	%rax, %rbx
	leaq	-896(%rbp), %rax
	movq	%rax, %rdi
	call	_ZNSt7__cxx1112basic_stringIcSt11char_traitsIcESaIcEED1Ev@PLT
	jmp	.L307
.L339:
	movq	%rax, %rbx
.L307:
	leaq	-768(%rbp), %rax
	movq	%rax, %rdi
	call	_ZNSt7__cxx1112basic_stringIcSt11char_traitsIcESaIcEED1Ev@PLT
	jmp	.L308
.L338:
	movq	%rax, %rbx
.L308:
	leaq	-721(%rbp), %rax
	movq	%rax, %rdi
	call	_ZNSaIcED1Ev@PLT
	leaq	-816(%rbp), %rax
	movq	%rax, %rdi
	call	_ZNSt7__cxx1112basic_stringIcSt11char_traitsIcESaIcEED1Ev@PLT
	jmp	.L309
.L337:
	movq	%rax, %rbx
.L309:
	leaq	-769(%rbp), %rax
	movq	%rax, %rdi
	call	_ZNSaIcED1Ev@PLT
	leaq	-864(%rbp), %rax
	movq	%rax, %rdi
	call	_ZNSt7__cxx1112basic_stringIcSt11char_traitsIcESaIcEED1Ev@PLT
	jmp	.L310
.L336:
	movq	%rax, %rbx
.L310:
	leaq	-817(%rbp), %rax
	movq	%rax, %rdi
	call	_ZNSaIcED1Ev@PLT
	movq	%rbx, %rax
	movq	%rax, %rdi
	call	_Unwind_Resume@PLT
.L345:
	movq	%rax, %rbx
	leaq	-720(%rbp), %rax
	movq	%rax, %rdi
	call	_ZNSt7__cxx1112basic_stringIcSt11char_traitsIcESaIcEED1Ev@PLT
	jmp	.L312
.L344:
	movq	%rax, %rbx
.L312:
	leaq	-592(%rbp), %rax
	movq	%rax, %rdi
	call	_ZNSt7__cxx1112basic_stringIcSt11char_traitsIcESaIcEED1Ev@PLT
	jmp	.L313
.L343:
	movq	%rax, %rbx
.L313:
	leaq	-545(%rbp), %rax
	movq	%rax, %rdi
	call	_ZNSaIcED1Ev@PLT
	leaq	-640(%rbp), %rax
	movq	%rax, %rdi
	call	_ZNSt7__cxx1112basic_stringIcSt11char_traitsIcESaIcEED1Ev@PLT
	jmp	.L314
.L342:
	movq	%rax, %rbx
.L314:
	leaq	-593(%rbp), %rax
	movq	%rax, %rdi
	call	_ZNSaIcED1Ev@PLT
	leaq	-688(%rbp), %rax
	movq	%rax, %rdi
	call	_ZNSt7__cxx1112basic_stringIcSt11char_traitsIcESaIcEED1Ev@PLT
	jmp	.L315
.L341:
	movq	%rax, %rbx
.L315:
	leaq	-641(%rbp), %rax
	movq	%rax, %rdi
	call	_ZNSaIcED1Ev@PLT
	movq	%rbx, %rax
	movq	%rax, %rdi
	call	_Unwind_Resume@PLT
.L350:
	movq	%rax, %rbx
	leaq	-544(%rbp), %rax
	movq	%rax, %rdi
	call	_ZNSt7__cxx1112basic_stringIcSt11char_traitsIcESaIcEED1Ev@PLT
	jmp	.L317
.L349:
	movq	%rax, %rbx
.L317:
	leaq	-416(%rbp), %rax
	movq	%rax, %rdi
	call	_ZNSt7__cxx1112basic_stringIcSt11char_traitsIcESaIcEED1Ev@PLT
	jmp	.L318
.L348:
	movq	%rax, %rbx
.L318:
	leaq	-369(%rbp), %rax
	movq	%rax, %rdi
	call	_ZNSaIcED1Ev@PLT
	leaq	-464(%rbp), %rax
	movq	%rax, %rdi
	call	_ZNSt7__cxx1112basic_stringIcSt11char_traitsIcESaIcEED1Ev@PLT
	jmp	.L319
.L347:
	movq	%rax, %rbx
.L319:
	leaq	-417(%rbp), %rax
	movq	%rax, %rdi
	call	_ZNSaIcED1Ev@PLT
	leaq	-512(%rbp), %rax
	movq	%rax, %rdi
	call	_ZNSt7__cxx1112basic_stringIcSt11char_traitsIcESaIcEED1Ev@PLT
	jmp	.L320
.L346:
	movq	%rax, %rbx
.L320:
	leaq	-465(%rbp), %rax
	movq	%rax, %rdi
	call	_ZNSaIcED1Ev@PLT
	movq	%rbx, %rax
	movq	%rax, %rdi
	call	_Unwind_Resume@PLT
.L355:
	movq	%rax, %rbx
	leaq	-368(%rbp), %rax
	movq	%rax, %rdi
	call	_ZNSt7__cxx1112basic_stringIcSt11char_traitsIcESaIcEED1Ev@PLT
	jmp	.L322
.L354:
	movq	%rax, %rbx
.L322:
	leaq	-240(%rbp), %rax
	movq	%rax, %rdi
	call	_ZNSt7__cxx1112basic_stringIcSt11char_traitsIcESaIcEED1Ev@PLT
	jmp	.L323
.L353:
	movq	%rax, %rbx
.L323:
	leaq	-193(%rbp), %rax
	movq	%rax, %rdi
	call	_ZNSaIcED1Ev@PLT
	leaq	-288(%rbp), %rax
	movq	%rax, %rdi
	call	_ZNSt7__cxx1112basic_stringIcSt11char_traitsIcESaIcEED1Ev@PLT
	jmp	.L324
.L352:
	movq	%rax, %rbx
.L324:
	leaq	-241(%rbp), %rax
	movq	%rax, %rdi
	call	_ZNSaIcED1Ev@PLT
	leaq	-336(%rbp), %rax
	movq	%rax, %rdi
	call	_ZNSt7__cxx1112basic_stringIcSt11char_traitsIcESaIcEED1Ev@PLT
	jmp	.L325
.L351:
	movq	%rax, %rbx
.L325:
	leaq	-289(%rbp), %rax
	movq	%rax, %rdi
	call	_ZNSaIcED1Ev@PLT
	movq	%rbx, %rax
	movq	%rax, %rdi
	call	_Unwind_Resume@PLT
.L360:
	movq	%rax, %rbx
	leaq	-192(%rbp), %rax
	movq	%rax, %rdi
	call	_ZNSt7__cxx1112basic_stringIcSt11char_traitsIcESaIcEED1Ev@PLT
	jmp	.L327
.L359:
	movq	%rax, %rbx
.L327:
	leaq	-64(%rbp), %rax
	movq	%rax, %rdi
	call	_ZNSt7__cxx1112basic_stringIcSt11char_traitsIcESaIcEED1Ev@PLT
	jmp	.L328
.L358:
	movq	%rax, %rbx
.L328:
	leaq	-17(%rbp), %rax
	movq	%rax, %rdi
	call	_ZNSaIcED1Ev@PLT
	leaq	-112(%rbp), %rax
	movq	%rax, %rdi
	call	_ZNSt7__cxx1112basic_stringIcSt11char_traitsIcESaIcEED1Ev@PLT
	jmp	.L329
.L357:
	movq	%rax, %rbx
.L329:
	leaq	-65(%rbp), %rax
	movq	%rax, %rdi
	call	_ZNSaIcED1Ev@PLT
	leaq	-160(%rbp), %rax
	movq	%rax, %rdi
	call	_ZNSt7__cxx1112basic_stringIcSt11char_traitsIcESaIcEED1Ev@PLT
	jmp	.L330
.L356:
	movq	%rax, %rbx
.L330:
	leaq	-113(%rbp), %rax
	movq	%rax, %rdi
	call	_ZNSaIcED1Ev@PLT
	movq	%rbx, %rax
	movq	%rax, %rdi
	call	_Unwind_Resume@PLT
.LEHE71:
.L361:
	movq	-8(%rbp), %rbx
	leave
	.cfi_def_cfa 7, 8
	ret
	.cfi_endproc
.LFE4523:
	.section	.gcc_except_table
.LLSDA4523:
	.byte	0xff
	.byte	0xff
	.byte	0x1
	.uleb128 .LLSDACSE4523-.LLSDACSB4523
.LLSDACSB4523:
	.uleb128 .LEHB41-.LFB4523
	.uleb128 .LEHE41-.LEHB41
	.uleb128 .L331-.LFB4523
	.uleb128 0
	.uleb128 .LEHB42-.LFB4523
	.uleb128 .LEHE42-.LEHB42
	.uleb128 .L332-.LFB4523
	.uleb128 0
	.uleb128 .LEHB43-.LFB4523
	.uleb128 .LEHE43-.LEHB43
	.uleb128 .L333-.LFB4523
	.uleb128 0
	.uleb128 .LEHB44-.LFB4523
	.uleb128 .LEHE44-.LEHB44
	.uleb128 .L334-.LFB4523
	.uleb128 0
	.uleb128 .LEHB45-.LFB4523
	.uleb128 .LEHE45-.LEHB45
	.uleb128 .L335-.LFB4523
	.uleb128 0
	.uleb128 .LEHB46-.LFB4523
	.uleb128 .LEHE46-.LEHB46
	.uleb128 .L336-.LFB4523
	.uleb128 0
	.uleb128 .LEHB47-.LFB4523
	.uleb128 .LEHE47-.LEHB47
	.uleb128 .L337-.LFB4523
	.uleb128 0
	.uleb128 .LEHB48-.LFB4523
	.uleb128 .LEHE48-.LEHB48
	.uleb128 .L338-.LFB4523
	.uleb128 0
	.uleb128 .LEHB49-.LFB4523
	.uleb128 .LEHE49-.LEHB49
	.uleb128 .L339-.LFB4523
	.uleb128 0
	.uleb128 .LEHB50-.LFB4523
	.uleb128 .LEHE50-.LEHB50
	.uleb128 .L340-.LFB4523
	.uleb128 0
	.uleb128 .LEHB51-.LFB4523
	.uleb128 .LEHE51-.LEHB51
	.uleb128 .L341-.LFB4523
	.uleb128 0
	.uleb128 .LEHB52-.LFB4523
	.uleb128 .LEHE52-.LEHB52
	.uleb128 .L342-.LFB4523
	.uleb128 0
	.uleb128 .LEHB53-.LFB4523
	.uleb128 .LEHE53-.LEHB53
	.uleb128 .L343-.LFB4523
	.uleb128 0
	.uleb128 .LEHB54-.LFB4523
	.uleb128 .LEHE54-.LEHB54
	.uleb128 .L344-.LFB4523
	.uleb128 0
	.uleb128 .LEHB55-.LFB4523
	.uleb128 .LEHE55-.LEHB55
	.uleb128 .L345-.LFB4523
	.uleb128 0
	.uleb128 .LEHB56-.LFB4523
	.uleb128 .LEHE56-.LEHB56
	.uleb128 .L346-.LFB4523
	.uleb128 0
	.uleb128 .LEHB57-.LFB4523
	.uleb128 .LEHE57-.LEHB57
	.uleb128 .L347-.LFB4523
	.uleb128 0
	.uleb128 .LEHB58-.LFB4523
	.uleb128 .LEHE58-.LEHB58
	.uleb128 .L348-.LFB4523
	.uleb128 0
	.uleb128 .LEHB59-.LFB4523
	.uleb128 .LEHE59-.LEHB59
	.uleb128 .L349-.LFB4523
	.uleb128 0
	.uleb128 .LEHB60-.LFB4523
	.uleb128 .LEHE60-.LEHB60
	.uleb128 .L350-.LFB4523
	.uleb128 0
	.uleb128 .LEHB61-.LFB4523
	.uleb128 .LEHE61-.LEHB61
	.uleb128 .L351-.LFB4523
	.uleb128 0
	.uleb128 .LEHB62-.LFB4523
	.uleb128 .LEHE62-.LEHB62
	.uleb128 .L352-.LFB4523
	.uleb128 0
	.uleb128 .LEHB63-.LFB4523
	.uleb128 .LEHE63-.LEHB63
	.uleb128 .L353-.LFB4523
	.uleb128 0
	.uleb128 .LEHB64-.LFB4523
	.uleb128 .LEHE64-.LEHB64
	.uleb128 .L354-.LFB4523
	.uleb128 0
	.uleb128 .LEHB65-.LFB4523
	.uleb128 .LEHE65-.LEHB65
	.uleb128 .L355-.LFB4523
	.uleb128 0
	.uleb128 .LEHB66-.LFB4523
	.uleb128 .LEHE66-.LEHB66
	.uleb128 .L356-.LFB4523
	.uleb128 0
	.uleb128 .LEHB67-.LFB4523
	.uleb128 .LEHE67-.LEHB67
	.uleb128 .L357-.LFB4523
	.uleb128 0
	.uleb128 .LEHB68-.LFB4523
	.uleb128 .LEHE68-.LEHB68
	.uleb128 .L358-.LFB4523
	.uleb128 0
	.uleb128 .LEHB69-.LFB4523
	.uleb128 .LEHE69-.LEHB69
	.uleb128 .L359-.LFB4523
	.uleb128 0
	.uleb128 .LEHB70-.LFB4523
	.uleb128 .LEHE70-.LEHB70
	.uleb128 .L360-.LFB4523
	.uleb128 0
	.uleb128 .LEHB71-.LFB4523
	.uleb128 .LEHE71-.LEHB71
	.uleb128 0
	.uleb128 0
.LLSDACSE4523:
	.text
	.size	main, .-main
	.section	.text._ZN9__gnu_cxx11char_traitsIcE6lengthEPKc,"axG",@progbits,_ZN9__gnu_cxx11char_traitsIcE6lengthEPKc,comdat
	.align 2
	.weak	_ZN9__gnu_cxx11char_traitsIcE6lengthEPKc
	.type	_ZN9__gnu_cxx11char_traitsIcE6lengthEPKc, @function
_ZN9__gnu_cxx11char_traitsIcE6lengthEPKc:
.LFB4524:
	.cfi_startproc
	pushq	%rbp
	.cfi_def_cfa_offset 16
	.cfi_offset 6, -16
	movq	%rsp, %rbp
	.cfi_def_cfa_register 6
	subq	$32, %rsp
	movq	%rdi, -24(%rbp)
	movq	$0, -8(%rbp)
	jmp	.L363
.L364:
	addq	$1, -8(%rbp)
.L363:
	movb	$0, -9(%rbp)
	movq	-24(%rbp), %rdx
	movq	-8(%rbp), %rax
	addq	%rax, %rdx
	leaq	-9(%rbp), %rax
	movq	%rax, %rsi
	movq	%rdx, %rdi
	call	_ZN9__gnu_cxx11char_traitsIcE2eqERKcS3_
	xorl	$1, %eax
	testb	%al, %al
	jne	.L364
	movq	-8(%rbp), %rax
	leave
	.cfi_def_cfa 7, 8
	ret
	.cfi_endproc
.LFE4524:
	.size	_ZN9__gnu_cxx11char_traitsIcE6lengthEPKc, .-_ZN9__gnu_cxx11char_traitsIcE6lengthEPKc
	.section	.text._ZNSt8__detail14__to_chars_lenIjEEjT_i,"axG",@progbits,_ZNSt8__detail14__to_chars_lenIjEEjT_i,comdat
	.weak	_ZNSt8__detail14__to_chars_lenIjEEjT_i
	.type	_ZNSt8__detail14__to_chars_lenIjEEjT_i, @function
_ZNSt8__detail14__to_chars_lenIjEEjT_i:
.LFB4624:
	.cfi_startproc
	pushq	%rbp
	.cfi_def_cfa_offset 16
	.cfi_offset 6, -16
	movq	%rsp, %rbp
	.cfi_def_cfa_register 6
	movl	%edi, -36(%rbp)
	movl	%esi, -40(%rbp)
	movl	$1, -4(%rbp)
	movl	-40(%rbp), %eax
	imull	%eax, %eax
	movl	%eax, -8(%rbp)
	movl	-40(%rbp), %eax
	movl	-8(%rbp), %edx
	imull	%edx, %eax
	movl	%eax, -12(%rbp)
	movl	-40(%rbp), %eax
	imull	-12(%rbp), %eax
	movl	%eax, %eax
	movq	%rax, -24(%rbp)
.L372:
	movl	-40(%rbp), %eax
	cmpl	%eax, -36(%rbp)
	jnb	.L367
	movl	-4(%rbp), %eax
	jmp	.L368
.L367:
	movl	-36(%rbp), %eax
	cmpl	-8(%rbp), %eax
	jnb	.L369
	movl	-4(%rbp), %eax
	addl	$1, %eax
	jmp	.L368
.L369:
	movl	-36(%rbp), %eax
	cmpl	-12(%rbp), %eax
	jnb	.L370
	movl	-4(%rbp), %eax
	addl	$2, %eax
	jmp	.L368
.L370:
	movl	-36(%rbp), %eax
	cmpq	-24(%rbp), %rax
	jnb	.L371
	movl	-4(%rbp), %eax
	addl	$3, %eax
	jmp	.L368
.L371:
	movl	-36(%rbp), %eax
	movl	$0, %edx
	divq	-24(%rbp)
	movl	%eax, -36(%rbp)
	addl	$4, -4(%rbp)
	jmp	.L372
.L368:
	popq	%rbp
	.cfi_def_cfa 7, 8
	ret
	.cfi_endproc
.LFE4624:
	.size	_ZNSt8__detail14__to_chars_lenIjEEjT_i, .-_ZNSt8__detail14__to_chars_lenIjEEjT_i
	.section	.text._ZNSt7__cxx1112basic_stringIcSt11char_traitsIcESaIcEE12_Alloc_hiderD2Ev,"axG",@progbits,_ZNSt7__cxx1112basic_stringIcSt11char_traitsIcESaIcEE12_Alloc_hiderD5Ev,comdat
	.align 2
	.weak	_ZNSt7__cxx1112basic_stringIcSt11char_traitsIcESaIcEE12_Alloc_hiderD2Ev
	.type	_ZNSt7__cxx1112basic_stringIcSt11char_traitsIcESaIcEE12_Alloc_hiderD2Ev, @function
_ZNSt7__cxx1112basic_stringIcSt11char_traitsIcESaIcEE12_Alloc_hiderD2Ev:
.LFB4633:
	.cfi_startproc
	pushq	%rbp
	.cfi_def_cfa_offset 16
	.cfi_offset 6, -16
	movq	%rsp, %rbp
	.cfi_def_cfa_register 6
	subq	$16, %rsp
	movq	%rdi, -8(%rbp)
	movq	-8(%rbp), %rax
	movq	%rax, %rdi
	call	_ZNSaIcED2Ev@PLT
	nop
	leave
	.cfi_def_cfa 7, 8
	ret
	.cfi_endproc
.LFE4633:
	.size	_ZNSt7__cxx1112basic_stringIcSt11char_traitsIcESaIcEE12_Alloc_hiderD2Ev, .-_ZNSt7__cxx1112basic_stringIcSt11char_traitsIcESaIcEE12_Alloc_hiderD2Ev
	.weak	_ZNSt7__cxx1112basic_stringIcSt11char_traitsIcESaIcEE12_Alloc_hiderD1Ev
	.set	_ZNSt7__cxx1112basic_stringIcSt11char_traitsIcESaIcEE12_Alloc_hiderD1Ev,_ZNSt7__cxx1112basic_stringIcSt11char_traitsIcESaIcEE12_Alloc_hiderD2Ev
	.section	.text._ZNSt7__cxx1112basic_stringIcSt11char_traitsIcESaIcEEC2IS3_EEmcRKS3_,"axG",@progbits,_ZNSt7__cxx1112basic_stringIcSt11char_traitsIcESaIcEEC5IS3_EEmcRKS3_,comdat
	.align 2
	.weak	_ZNSt7__cxx1112basic_stringIcSt11char_traitsIcESaIcEEC2IS3_EEmcRKS3_
	.type	_ZNSt7__cxx1112basic_stringIcSt11char_traitsIcESaIcEEC2IS3_EEmcRKS3_, @function
_ZNSt7__cxx1112basic_stringIcSt11char_traitsIcESaIcEEC2IS3_EEmcRKS3_:
.LFB4635:
	.cfi_startproc
	.cfi_personality 0x9b,DW.ref.__gxx_personality_v0
	.cfi_lsda 0x1b,.LLSDA4635
	pushq	%rbp
	.cfi_def_cfa_offset 16
	.cfi_offset 6, -16
	movq	%rsp, %rbp
	.cfi_def_cfa_register 6
	pushq	%rbx
	subq	$40, %rsp
	.cfi_offset 3, -24
	movq	%rdi, -24(%rbp)
	movq	%rsi, -32(%rbp)
	movl	%edx, %eax
	movq	%rcx, -48(%rbp)
	movb	%al, -36(%rbp)
	movq	-24(%rbp), %rbx
	movq	-24(%rbp), %rax
	movq	%rax, %rdi
	call	_ZNSt7__cxx1112basic_stringIcSt11char_traitsIcESaIcEE13_M_local_dataEv@PLT
	movq	%rax, %rcx
	movq	-48(%rbp), %rax
	movq	%rax, %rdx
	movq	%rcx, %rsi
	movq	%rbx, %rdi
	call	_ZNSt7__cxx1112basic_stringIcSt11char_traitsIcESaIcEE12_Alloc_hiderC1EPcRKS3_@PLT
	movsbl	-36(%rbp), %edx
	movq	-32(%rbp), %rcx
	movq	-24(%rbp), %rax
	movq	%rcx, %rsi
	movq	%rax, %rdi
.LEHB72:
	call	_ZNSt7__cxx1112basic_stringIcSt11char_traitsIcESaIcEE12_M_constructEmc@PLT
.LEHE72:
	jmp	.L377
.L376:
	movq	%rax, %rbx
	movq	-24(%rbp), %rax
	movq	%rax, %rdi
	call	_ZNSt7__cxx1112basic_stringIcSt11char_traitsIcESaIcEE12_Alloc_hiderD1Ev
	movq	%rbx, %rax
	movq	%rax, %rdi
.LEHB73:
	call	_Unwind_Resume@PLT
.LEHE73:
.L377:
	movq	-8(%rbp), %rbx
	leave
	.cfi_def_cfa 7, 8
	ret
	.cfi_endproc
.LFE4635:
	.section	.gcc_except_table
.LLSDA4635:
	.byte	0xff
	.byte	0xff
	.byte	0x1
	.uleb128 .LLSDACSE4635-.LLSDACSB4635
.LLSDACSB4635:
	.uleb128 .LEHB72-.LFB4635
	.uleb128 .LEHE72-.LEHB72
	.uleb128 .L376-.LFB4635
	.uleb128 0
	.uleb128 .LEHB73-.LFB4635
	.uleb128 .LEHE73-.LEHB73
	.uleb128 0
	.uleb128 0
.LLSDACSE4635:
	.section	.text._ZNSt7__cxx1112basic_stringIcSt11char_traitsIcESaIcEEC2IS3_EEmcRKS3_,"axG",@progbits,_ZNSt7__cxx1112basic_stringIcSt11char_traitsIcESaIcEEC5IS3_EEmcRKS3_,comdat
	.size	_ZNSt7__cxx1112basic_stringIcSt11char_traitsIcESaIcEEC2IS3_EEmcRKS3_, .-_ZNSt7__cxx1112basic_stringIcSt11char_traitsIcESaIcEEC2IS3_EEmcRKS3_
	.weak	_ZNSt7__cxx1112basic_stringIcSt11char_traitsIcESaIcEEC1IS3_EEmcRKS3_
	.set	_ZNSt7__cxx1112basic_stringIcSt11char_traitsIcESaIcEEC1IS3_EEmcRKS3_,_ZNSt7__cxx1112basic_stringIcSt11char_traitsIcESaIcEEC2IS3_EEmcRKS3_
	.weak	_ZZNSt8__detail18__to_chars_10_implIjEEvPcjT_E8__digits
	.section	.rodata._ZZNSt8__detail18__to_chars_10_implIjEEvPcjT_E8__digits,"aG",@progbits,_ZZNSt8__detail18__to_chars_10_implIjEEvPcjT_E8__digits,comdat
	.align 32
	.type	_ZZNSt8__detail18__to_chars_10_implIjEEvPcjT_E8__digits, @gnu_unique_object
	.size	_ZZNSt8__detail18__to_chars_10_implIjEEvPcjT_E8__digits, 201
_ZZNSt8__detail18__to_chars_10_implIjEEvPcjT_E8__digits:
	.string	"00010203040506070809101112131415161718192021222324252627282930313233343536373839404142434445464748495051525354555657585960616263646566676869707172737475767778798081828384858687888990919293949596979899"
	.section	.text._ZNSt8__detail18__to_chars_10_implIjEEvPcjT_,"axG",@progbits,_ZNSt8__detail18__to_chars_10_implIjEEvPcjT_,comdat
	.weak	_ZNSt8__detail18__to_chars_10_implIjEEvPcjT_
	.type	_ZNSt8__detail18__to_chars_10_implIjEEvPcjT_, @function
_ZNSt8__detail18__to_chars_10_implIjEEvPcjT_:
.LFB4641:
	.cfi_startproc
	pushq	%rbp
	.cfi_def_cfa_offset 16
	.cfi_offset 6, -16
	movq	%rsp, %rbp
	.cfi_def_cfa_register 6
	movq	%rdi, -24(%rbp)
	movl	%esi, -28(%rbp)
	movl	%edx, -32(%rbp)
	movl	-28(%rbp), %eax
	subl	$1, %eax
	movl	%eax, -4(%rbp)
	jmp	.L379
.L380:
	movl	-32(%rbp), %ecx
	movl	%ecx, %eax
	imulq	$1374389535, %rax, %rax
	shrq	$32, %rax
	shrl	$5, %eax
	imull	$100, %eax, %edx
	movl	%ecx, %eax
	subl	%edx, %eax
	addl	%eax, %eax
	movl	%eax, -12(%rbp)
	movl	-32(%rbp), %eax
	movl	%eax, %eax
	imulq	$1374389535, %rax, %rax
	shrq	$32, %rax
	shrl	$5, %eax
	movl	%eax, -32(%rbp)
	movl	-12(%rbp), %eax
	leal	1(%rax), %ecx
	movl	-4(%rbp), %edx
	movq	-24(%rbp), %rax
	addq	%rax, %rdx
	movl	%ecx, %ecx
	leaq	_ZZNSt8__detail18__to_chars_10_implIjEEvPcjT_E8__digits(%rip), %rax
	movzbl	(%rcx,%rax), %eax
	movb	%al, (%rdx)
	movl	-4(%rbp), %eax
	subl	$1, %eax
	movl	%eax, %edx
	movq	-24(%rbp), %rax
	addq	%rax, %rdx
	movl	-12(%rbp), %eax
	leaq	_ZZNSt8__detail18__to_chars_10_implIjEEvPcjT_E8__digits(%rip), %rcx
	movzbl	(%rax,%rcx), %eax
	movb	%al, (%rdx)
	subl	$2, -4(%rbp)
.L379:
	cmpl	$99, -32(%rbp)
	ja	.L380
	cmpl	$9, -32(%rbp)
	jbe	.L381
	movl	-32(%rbp), %eax
	addl	%eax, %eax
	movl	%eax, -8(%rbp)
	movl	-8(%rbp), %eax
	leal	1(%rax), %ecx
	movq	-24(%rbp), %rax
	leaq	1(%rax), %rdx
	movl	%ecx, %ecx
	leaq	_ZZNSt8__detail18__to_chars_10_implIjEEvPcjT_E8__digits(%rip), %rax
	movzbl	(%rcx,%rax), %eax
	movb	%al, (%rdx)
	movl	-8(%rbp), %eax
	leaq	_ZZNSt8__detail18__to_chars_10_implIjEEvPcjT_E8__digits(%rip), %rdx
	movzbl	(%rax,%rdx), %edx
	movq	-24(%rbp), %rax
	movb	%dl, (%rax)
	jmp	.L383
.L381:
	movl	-32(%rbp), %eax
	addl	$48, %eax
	movl	%eax, %edx
	movq	-24(%rbp), %rax
	movb	%dl, (%rax)
.L383:
	nop
	popq	%rbp
	.cfi_def_cfa 7, 8
	ret
	.cfi_endproc
.LFE4641:
	.size	_ZNSt8__detail18__to_chars_10_implIjEEvPcjT_, .-_ZNSt8__detail18__to_chars_10_implIjEEvPcjT_
	.section	.text._ZNSt8__detail14__to_chars_lenImEEjT_i,"axG",@progbits,_ZNSt8__detail14__to_chars_lenImEEjT_i,comdat
	.weak	_ZNSt8__detail14__to_chars_lenImEEjT_i
	.type	_ZNSt8__detail14__to_chars_lenImEEjT_i, @function
_ZNSt8__detail14__to_chars_lenImEEjT_i:
.LFB4646:
	.cfi_startproc
	pushq	%rbp
	.cfi_def_cfa_offset 16
	.cfi_offset 6, -16
	movq	%rsp, %rbp
	.cfi_def_cfa_register 6
	movq	%rdi, -40(%rbp)
	movl	%esi, -44(%rbp)
	movl	$1, -4(%rbp)
	movl	-44(%rbp), %eax
	imull	%eax, %eax
	movl	%eax, -8(%rbp)
	movl	-44(%rbp), %eax
	movl	-8(%rbp), %edx
	imull	%edx, %eax
	movl	%eax, -12(%rbp)
	movl	-44(%rbp), %eax
	imull	-12(%rbp), %eax
	movl	%eax, %eax
	movq	%rax, -24(%rbp)
.L390:
	movl	-44(%rbp), %eax
	movl	%eax, %eax
	cmpq	%rax, -40(%rbp)
	jnb	.L385
	movl	-4(%rbp), %eax
	jmp	.L386
.L385:
	movl	-8(%rbp), %eax
	cmpq	%rax, -40(%rbp)
	jnb	.L387
	movl	-4(%rbp), %eax
	addl	$1, %eax
	jmp	.L386
.L387:
	movl	-12(%rbp), %eax
	cmpq	%rax, -40(%rbp)
	jnb	.L388
	movl	-4(%rbp), %eax
	addl	$2, %eax
	jmp	.L386
.L388:
	movq	-40(%rbp), %rax
	cmpq	-24(%rbp), %rax
	jnb	.L389
	movl	-4(%rbp), %eax
	addl	$3, %eax
	jmp	.L386
.L389:
	movq	-40(%rbp), %rax
	movl	$0, %edx
	divq	-24(%rbp)
	movq	%rax, -40(%rbp)
	addl	$4, -4(%rbp)
	jmp	.L390
.L386:
	popq	%rbp
	.cfi_def_cfa 7, 8
	ret
	.cfi_endproc
.LFE4646:
	.size	_ZNSt8__detail14__to_chars_lenImEEjT_i, .-_ZNSt8__detail14__to_chars_lenImEEjT_i
	.weak	_ZZNSt8__detail18__to_chars_10_implImEEvPcjT_E8__digits
	.section	.rodata._ZZNSt8__detail18__to_chars_10_implImEEvPcjT_E8__digits,"aG",@progbits,_ZZNSt8__detail18__to_chars_10_implImEEvPcjT_E8__digits,comdat
	.align 32
	.type	_ZZNSt8__detail18__to_chars_10_implImEEvPcjT_E8__digits, @gnu_unique_object
	.size	_ZZNSt8__detail18__to_chars_10_implImEEvPcjT_E8__digits, 201
_ZZNSt8__detail18__to_chars_10_implImEEvPcjT_E8__digits:
	.string	"00010203040506070809101112131415161718192021222324252627282930313233343536373839404142434445464748495051525354555657585960616263646566676869707172737475767778798081828384858687888990919293949596979899"
	.section	.text._ZNSt8__detail18__to_chars_10_implImEEvPcjT_,"axG",@progbits,_ZNSt8__detail18__to_chars_10_implImEEvPcjT_,comdat
	.weak	_ZNSt8__detail18__to_chars_10_implImEEvPcjT_
	.type	_ZNSt8__detail18__to_chars_10_implImEEvPcjT_, @function
_ZNSt8__detail18__to_chars_10_implImEEvPcjT_:
.LFB4647:
	.cfi_startproc
	pushq	%rbp
	.cfi_def_cfa_offset 16
	.cfi_offset 6, -16
	movq	%rsp, %rbp
	.cfi_def_cfa_register 6
	movq	%rdi, -40(%rbp)
	movl	%esi, -44(%rbp)
	movq	%rdx, -56(%rbp)
	movl	-44(%rbp), %eax
	subl	$1, %eax
	movl	%eax, -4(%rbp)
	jmp	.L392
.L393:
	movq	-56(%rbp), %rcx
	movq	%rcx, %rax
	shrq	$2, %rax
	movabsq	$2951479051793528259, %rdx
	mulq	%rdx
	shrq	$2, %rdx
	movq	%rdx, %rax
	salq	$2, %rax
	addq	%rdx, %rax
	leaq	0(,%rax,4), %rdx
	addq	%rdx, %rax
	salq	$2, %rax
	subq	%rax, %rcx
	movq	%rcx, %rdx
	leaq	(%rdx,%rdx), %rax
	movq	%rax, -24(%rbp)
	movq	-56(%rbp), %rax
	shrq	$2, %rax
	movabsq	$2951479051793528259, %rdx
	mulq	%rdx
	movq	%rdx, %rax
	shrq	$2, %rax
	movq	%rax, -56(%rbp)
	movq	-24(%rbp), %rax
	leaq	1(%rax), %rcx
	movl	-4(%rbp), %edx
	movq	-40(%rbp), %rax
	addq	%rax, %rdx
	leaq	_ZZNSt8__detail18__to_chars_10_implImEEvPcjT_E8__digits(%rip), %rax
	movzbl	(%rcx,%rax), %eax
	movb	%al, (%rdx)
	movl	-4(%rbp), %eax
	subl	$1, %eax
	movl	%eax, %edx
	movq	-40(%rbp), %rax
	addq	%rax, %rdx
	leaq	_ZZNSt8__detail18__to_chars_10_implImEEvPcjT_E8__digits(%rip), %rcx
	movq	-24(%rbp), %rax
	addq	%rcx, %rax
	movzbl	(%rax), %eax
	movb	%al, (%rdx)
	subl	$2, -4(%rbp)
.L392:
	cmpq	$99, -56(%rbp)
	ja	.L393
	cmpq	$9, -56(%rbp)
	jbe	.L394
	movq	-56(%rbp), %rax
	addq	%rax, %rax
	movq	%rax, -16(%rbp)
	movq	-16(%rbp), %rax
	leaq	1(%rax), %rcx
	movq	-40(%rbp), %rax
	leaq	1(%rax), %rdx
	leaq	_ZZNSt8__detail18__to_chars_10_implImEEvPcjT_E8__digits(%rip), %rax
	movzbl	(%rcx,%rax), %eax
	movb	%al, (%rdx)
	leaq	_ZZNSt8__detail18__to_chars_10_implImEEvPcjT_E8__digits(%rip), %rdx
	movq	-16(%rbp), %rax
	addq	%rdx, %rax
	movzbl	(%rax), %edx
	movq	-40(%rbp), %rax
	movb	%dl, (%rax)
	jmp	.L396
.L394:
	movq	-56(%rbp), %rax
	addl	$48, %eax
	movl	%eax, %edx
	movq	-40(%rbp), %rax
	movb	%dl, (%rax)
.L396:
	nop
	popq	%rbp
	.cfi_def_cfa 7, 8
	ret
	.cfi_endproc
.LFE4647:
	.size	_ZNSt8__detail18__to_chars_10_implImEEvPcjT_, .-_ZNSt8__detail18__to_chars_10_implImEEvPcjT_
	.section	.text._ZNSt8__detail14__to_chars_lenIyEEjT_i,"axG",@progbits,_ZNSt8__detail14__to_chars_lenIyEEjT_i,comdat
	.weak	_ZNSt8__detail14__to_chars_lenIyEEjT_i
	.type	_ZNSt8__detail14__to_chars_lenIyEEjT_i, @function
_ZNSt8__detail14__to_chars_lenIyEEjT_i:
.LFB4648:
	.cfi_startproc
	pushq	%rbp
	.cfi_def_cfa_offset 16
	.cfi_offset 6, -16
	movq	%rsp, %rbp
	.cfi_def_cfa_register 6
	movq	%rdi, -40(%rbp)
	movl	%esi, -44(%rbp)
	movl	$1, -4(%rbp)
	movl	-44(%rbp), %eax
	imull	%eax, %eax
	movl	%eax, -8(%rbp)
	movl	-44(%rbp), %eax
	movl	-8(%rbp), %edx
	imull	%edx, %eax
	movl	%eax, -12(%rbp)
	movl	-44(%rbp), %eax
	imull	-12(%rbp), %eax
	movl	%eax, %eax
	movq	%rax, -24(%rbp)
.L403:
	movl	-44(%rbp), %eax
	movl	%eax, %eax
	cmpq	%rax, -40(%rbp)
	jnb	.L398
	movl	-4(%rbp), %eax
	jmp	.L399
.L398:
	movl	-8(%rbp), %eax
	cmpq	%rax, -40(%rbp)
	jnb	.L400
	movl	-4(%rbp), %eax
	addl	$1, %eax
	jmp	.L399
.L400:
	movl	-12(%rbp), %eax
	cmpq	%rax, -40(%rbp)
	jnb	.L401
	movl	-4(%rbp), %eax
	addl	$2, %eax
	jmp	.L399
.L401:
	movq	-40(%rbp), %rax
	cmpq	-24(%rbp), %rax
	jnb	.L402
	movl	-4(%rbp), %eax
	addl	$3, %eax
	jmp	.L399
.L402:
	movq	-40(%rbp), %rax
	movl	$0, %edx
	divq	-24(%rbp)
	movq	%rax, -40(%rbp)
	addl	$4, -4(%rbp)
	jmp	.L403
.L399:
	popq	%rbp
	.cfi_def_cfa 7, 8
	ret
	.cfi_endproc
.LFE4648:
	.size	_ZNSt8__detail14__to_chars_lenIyEEjT_i, .-_ZNSt8__detail14__to_chars_lenIyEEjT_i
	.weak	_ZZNSt8__detail18__to_chars_10_implIyEEvPcjT_E8__digits
	.section	.rodata._ZZNSt8__detail18__to_chars_10_implIyEEvPcjT_E8__digits,"aG",@progbits,_ZZNSt8__detail18__to_chars_10_implIyEEvPcjT_E8__digits,comdat
	.align 32
	.type	_ZZNSt8__detail18__to_chars_10_implIyEEvPcjT_E8__digits, @gnu_unique_object
	.size	_ZZNSt8__detail18__to_chars_10_implIyEEvPcjT_E8__digits, 201
_ZZNSt8__detail18__to_chars_10_implIyEEvPcjT_E8__digits:
	.string	"00010203040506070809101112131415161718192021222324252627282930313233343536373839404142434445464748495051525354555657585960616263646566676869707172737475767778798081828384858687888990919293949596979899"
	.section	.text._ZNSt8__detail18__to_chars_10_implIyEEvPcjT_,"axG",@progbits,_ZNSt8__detail18__to_chars_10_implIyEEvPcjT_,comdat
	.weak	_ZNSt8__detail18__to_chars_10_implIyEEvPcjT_
	.type	_ZNSt8__detail18__to_chars_10_implIyEEvPcjT_, @function
_ZNSt8__detail18__to_chars_10_implIyEEvPcjT_:
.LFB4649:
	.cfi_startproc
	pushq	%rbp
	.cfi_def_cfa_offset 16
	.cfi_offset 6, -16
	movq	%rsp, %rbp
	.cfi_def_cfa_register 6
	movq	%rdi, -40(%rbp)
	movl	%esi, -44(%rbp)
	movq	%rdx, -56(%rbp)
	movl	-44(%rbp), %eax
	subl	$1, %eax
	movl	%eax, -4(%rbp)
	jmp	.L405
.L406:
	movq	-56(%rbp), %rcx
	movq	%rcx, %rax
	shrq	$2, %rax
	movabsq	$2951479051793528259, %rdx
	mulq	%rdx
	shrq	$2, %rdx
	movq	%rdx, %rax
	salq	$2, %rax
	addq	%rdx, %rax
	leaq	0(,%rax,4), %rdx
	addq	%rdx, %rax
	salq	$2, %rax
	subq	%rax, %rcx
	movq	%rcx, %rdx
	leaq	(%rdx,%rdx), %rax
	movq	%rax, -24(%rbp)
	movq	-56(%rbp), %rax
	shrq	$2, %rax
	movabsq	$2951479051793528259, %rdx
	mulq	%rdx
	movq	%rdx, %rax
	shrq	$2, %rax
	movq	%rax, -56(%rbp)
	movq	-24(%rbp), %rax
	leaq	1(%rax), %rcx
	movl	-4(%rbp), %edx
	movq	-40(%rbp), %rax
	addq	%rax, %rdx
	leaq	_ZZNSt8__detail18__to_chars_10_implIyEEvPcjT_E8__digits(%rip), %rax
	movzbl	(%rcx,%rax), %eax
	movb	%al, (%rdx)
	movl	-4(%rbp), %eax
	subl	$1, %eax
	movl	%eax, %edx
	movq	-40(%rbp), %rax
	addq	%rax, %rdx
	leaq	_ZZNSt8__detail18__to_chars_10_implIyEEvPcjT_E8__digits(%rip), %rcx
	movq	-24(%rbp), %rax
	addq	%rcx, %rax
	movzbl	(%rax), %eax
	movb	%al, (%rdx)
	subl	$2, -4(%rbp)
.L405:
	cmpq	$99, -56(%rbp)
	ja	.L406
	cmpq	$9, -56(%rbp)
	jbe	.L407
	movq	-56(%rbp), %rax
	addq	%rax, %rax
	movq	%rax, -16(%rbp)
	movq	-16(%rbp), %rax
	leaq	1(%rax), %rcx
	movq	-40(%rbp), %rax
	leaq	1(%rax), %rdx
	leaq	_ZZNSt8__detail18__to_chars_10_implIyEEvPcjT_E8__digits(%rip), %rax
	movzbl	(%rcx,%rax), %eax
	movb	%al, (%rdx)
	leaq	_ZZNSt8__detail18__to_chars_10_implIyEEvPcjT_E8__digits(%rip), %rdx
	movq	-16(%rbp), %rax
	addq	%rdx, %rax
	movzbl	(%rax), %edx
	movq	-40(%rbp), %rax
	movb	%dl, (%rax)
	jmp	.L409
.L407:
	movq	-56(%rbp), %rax
	addl	$48, %eax
	movl	%eax, %edx
	movq	-40(%rbp), %rax
	movb	%dl, (%rax)
.L409:
	nop
	popq	%rbp
	.cfi_def_cfa 7, 8
	ret
	.cfi_endproc
.LFE4649:
	.size	_ZNSt8__detail18__to_chars_10_implIyEEvPcjT_, .-_ZNSt8__detail18__to_chars_10_implIyEEvPcjT_
	.section	.text._ZN9__gnu_cxx12__to_xstringINSt7__cxx1112basic_stringIcSt11char_traitsIcESaIcEEEcEET_PFiPT0_mPKS8_P13__va_list_tagEmSB_z,"axG",@progbits,_ZN9__gnu_cxx12__to_xstringINSt7__cxx1112basic_stringIcSt11char_traitsIcESaIcEEEcEET_PFiPT0_mPKS8_P13__va_list_tagEmSB_z,comdat
	.weak	_ZN9__gnu_cxx12__to_xstringINSt7__cxx1112basic_stringIcSt11char_traitsIcESaIcEEEcEET_PFiPT0_mPKS8_P13__va_list_tagEmSB_z
	.type	_ZN9__gnu_cxx12__to_xstringINSt7__cxx1112basic_stringIcSt11char_traitsIcESaIcEEEcEET_PFiPT0_mPKS8_P13__va_list_tagEmSB_z, @function
_ZN9__gnu_cxx12__to_xstringINSt7__cxx1112basic_stringIcSt11char_traitsIcESaIcEEEcEET_PFiPT0_mPKS8_P13__va_list_tagEmSB_z:
.LFB4650:
	.cfi_startproc
	.cfi_personality 0x9b,DW.ref.__gxx_personality_v0
	.cfi_lsda 0x1b,.LLSDA4650
	pushq	%rbp
	.cfi_def_cfa_offset 16
	.cfi_offset 6, -16
	movq	%rsp, %rbp
	.cfi_def_cfa_register 6
	pushq	%rbx
	subq	$264, %rsp
	.cfi_offset 3, -24
	movq	%rdi, -248(%rbp)
	movq	%rsi, -256(%rbp)
	movq	%rdx, -264(%rbp)
	movq	%rcx, -272(%rbp)
	movq	%r8, -160(%rbp)
	movq	%r9, -152(%rbp)
	testb	%al, %al
	je	.L415
	movaps	%xmm0, -144(%rbp)
	movaps	%xmm1, -128(%rbp)
	movaps	%xmm2, -112(%rbp)
	movaps	%xmm3, -96(%rbp)
	movaps	%xmm4, -80(%rbp)
	movaps	%xmm5, -64(%rbp)
	movaps	%xmm6, -48(%rbp)
	movaps	%xmm7, -32(%rbp)
.L415:
	movq	-264(%rbp), %rax
	leaq	8(%rax), %rdx
	movl	$16, %eax
	subq	$1, %rax
	addq	%rdx, %rax
	movl	$16, %ebx
	movl	$0, %edx
	divq	%rbx
	imulq	$16, %rax, %rax
	subq	%rax, %rsp
	movq	%rsp, %rax
	addq	$15, %rax
	shrq	$4, %rax
	salq	$4, %rax
	movq	%rax, -200(%rbp)
	movl	$32, -232(%rbp)
	movl	$48, -228(%rbp)
	leaq	16(%rbp), %rax
	movq	%rax, -224(%rbp)
	leaq	-192(%rbp), %rax
	movq	%rax, -216(%rbp)
	movq	-256(%rbp), %r8
	leaq	-232(%rbp), %rcx
	movq	-272(%rbp), %rdx
	movq	-264(%rbp), %rsi
	movq	-200(%rbp), %rax
	movq	%rax, %rdi
.LEHB74:
	call	*%r8
.LEHE74:
	movl	%eax, -204(%rbp)
	leaq	-205(%rbp), %rax
	movq	%rax, %rdi
	call	_ZNSaIcEC1Ev@PLT
	movl	-204(%rbp), %eax
	movslq	%eax, %rdx
	movq	-200(%rbp), %rax
	leaq	(%rdx,%rax), %rdi
	leaq	-205(%rbp), %rdx
	movq	-200(%rbp), %rsi
	movq	-248(%rbp), %rax
	movq	%rdx, %rcx
	movq	%rdi, %rdx
	movq	%rax, %rdi
.LEHB75:
	call	_ZNSt7__cxx1112basic_stringIcSt11char_traitsIcESaIcEEC1IPcvEET_S7_RKS3_
.LEHE75:
	leaq	-205(%rbp), %rax
	movq	%rax, %rdi
	call	_ZNSaIcED1Ev@PLT
	jmp	.L416
.L414:
	movq	%rax, %rbx
	leaq	-205(%rbp), %rax
	movq	%rax, %rdi
	call	_ZNSaIcED1Ev@PLT
	movq	%rbx, %rax
	movq	%rax, %rdi
.LEHB76:
	call	_Unwind_Resume@PLT
.LEHE76:
.L416:
	movq	-248(%rbp), %rax
	movq	-8(%rbp), %rbx
	leave
	.cfi_def_cfa 7, 8
	ret
	.cfi_endproc
.LFE4650:
	.section	.gcc_except_table
.LLSDA4650:
	.byte	0xff
	.byte	0xff
	.byte	0x1
	.uleb128 .LLSDACSE4650-.LLSDACSB4650
.LLSDACSB4650:
	.uleb128 .LEHB74-.LFB4650
	.uleb128 .LEHE74-.LEHB74
	.uleb128 0
	.uleb128 0
	.uleb128 .LEHB75-.LFB4650
	.uleb128 .LEHE75-.LEHB75
	.uleb128 .L414-.LFB4650
	.uleb128 0
	.uleb128 .LEHB76-.LFB4650
	.uleb128 .LEHE76-.LEHB76
	.uleb128 0
	.uleb128 0
.LLSDACSE4650:
	.section	.text._ZN9__gnu_cxx12__to_xstringINSt7__cxx1112basic_stringIcSt11char_traitsIcESaIcEEEcEET_PFiPT0_mPKS8_P13__va_list_tagEmSB_z,"axG",@progbits,_ZN9__gnu_cxx12__to_xstringINSt7__cxx1112basic_stringIcSt11char_traitsIcESaIcEEEcEET_PFiPT0_mPKS8_P13__va_list_tagEmSB_z,comdat
	.size	_ZN9__gnu_cxx12__to_xstringINSt7__cxx1112basic_stringIcSt11char_traitsIcESaIcEEEcEET_PFiPT0_mPKS8_P13__va_list_tagEmSB_z, .-_ZN9__gnu_cxx12__to_xstringINSt7__cxx1112basic_stringIcSt11char_traitsIcESaIcEEEcEET_PFiPT0_mPKS8_P13__va_list_tagEmSB_z
	.section	.text._ZStplIcSt11char_traitsIcESaIcEENSt7__cxx1112basic_stringIT_T0_T1_EEPKS5_OS8_,"axG",@progbits,_ZStplIcSt11char_traitsIcESaIcEENSt7__cxx1112basic_stringIT_T0_T1_EEPKS5_OS8_,comdat
	.weak	_ZStplIcSt11char_traitsIcESaIcEENSt7__cxx1112basic_stringIT_T0_T1_EEPKS5_OS8_
	.type	_ZStplIcSt11char_traitsIcESaIcEENSt7__cxx1112basic_stringIT_T0_T1_EEPKS5_OS8_, @function
_ZStplIcSt11char_traitsIcESaIcEENSt7__cxx1112basic_stringIT_T0_T1_EEPKS5_OS8_:
.LFB4784:
	.cfi_startproc
	pushq	%rbp
	.cfi_def_cfa_offset 16
	.cfi_offset 6, -16
	movq	%rsp, %rbp
	.cfi_def_cfa_register 6
	subq	$32, %rsp
	movq	%rdi, -8(%rbp)
	movq	%rsi, -16(%rbp)
	movq	%rdx, -24(%rbp)
	movq	-16(%rbp), %rdx
	movq	-24(%rbp), %rax
	movl	$0, %esi
	movq	%rax, %rdi
	call	_ZNSt7__cxx1112basic_stringIcSt11char_traitsIcESaIcEE6insertEmPKc@PLT
	movq	%rax, %rdi
	call	_ZSt4moveIRNSt7__cxx1112basic_stringIcSt11char_traitsIcESaIcEEEEONSt16remove_referenceIT_E4typeEOS8_
	movq	%rax, %rdx
	movq	-8(%rbp), %rax
	movq	%rdx, %rsi
	movq	%rax, %rdi
	call	_ZNSt7__cxx1112basic_stringIcSt11char_traitsIcESaIcEEC1EOS4_@PLT
	movq	-8(%rbp), %rax
	leave
	.cfi_def_cfa 7, 8
	ret
	.cfi_endproc
.LFE4784:
	.size	_ZStplIcSt11char_traitsIcESaIcEENSt7__cxx1112basic_stringIT_T0_T1_EEPKS5_OS8_, .-_ZStplIcSt11char_traitsIcESaIcEENSt7__cxx1112basic_stringIT_T0_T1_EEPKS5_OS8_
	.section	.text._ZNSt16_Sp_counted_baseILN9__gnu_cxx12_Lock_policyE2EE10_M_destroyEv,"axG",@progbits,_ZNSt16_Sp_counted_baseILN9__gnu_cxx12_Lock_policyE2EE10_M_destroyEv,comdat
	.align 2
	.weak	_ZNSt16_Sp_counted_baseILN9__gnu_cxx12_Lock_policyE2EE10_M_destroyEv
	.type	_ZNSt16_Sp_counted_baseILN9__gnu_cxx12_Lock_policyE2EE10_M_destroyEv, @function
_ZNSt16_Sp_counted_baseILN9__gnu_cxx12_Lock_policyE2EE10_M_destroyEv:
.LFB4804:
	.cfi_startproc
	pushq	%rbp
	.cfi_def_cfa_offset 16
	.cfi_offset 6, -16
	movq	%rsp, %rbp
	.cfi_def_cfa_register 6
	subq	$16, %rsp
	movq	%rdi, -8(%rbp)
	cmpq	$0, -8(%rbp)
	je	.L421
	movq	-8(%rbp), %rax
	movq	(%rax), %rax
	addq	$8, %rax
	movq	(%rax), %rdx
	movq	-8(%rbp), %rax
	movq	%rax, %rdi
	call	*%rdx
.L421:
	nop
	leave
	.cfi_def_cfa 7, 8
	ret
	.cfi_endproc
.LFE4804:
	.size	_ZNSt16_Sp_counted_baseILN9__gnu_cxx12_Lock_policyE2EE10_M_destroyEv, .-_ZNSt16_Sp_counted_baseILN9__gnu_cxx12_Lock_policyE2EE10_M_destroyEv
	.section	.text._ZNSt16_Sp_counted_baseILN9__gnu_cxx12_Lock_policyE2EE24_M_release_last_use_coldEv,"axG",@progbits,_ZNSt16_Sp_counted_baseILN9__gnu_cxx12_Lock_policyE2EE24_M_release_last_use_coldEv,comdat
	.align 2
	.weak	_ZNSt16_Sp_counted_baseILN9__gnu_cxx12_Lock_policyE2EE24_M_release_last_use_coldEv
	.type	_ZNSt16_Sp_counted_baseILN9__gnu_cxx12_Lock_policyE2EE24_M_release_last_use_coldEv, @function
_ZNSt16_Sp_counted_baseILN9__gnu_cxx12_Lock_policyE2EE24_M_release_last_use_coldEv:
.LFB4805:
	.cfi_startproc
	pushq	%rbp
	.cfi_def_cfa_offset 16
	.cfi_offset 6, -16
	movq	%rsp, %rbp
	.cfi_def_cfa_register 6
	subq	$16, %rsp
	movq	%rdi, -8(%rbp)
	movq	-8(%rbp), %rax
	movq	%rax, %rdi
	call	_ZNSt16_Sp_counted_baseILN9__gnu_cxx12_Lock_policyE2EE19_M_release_last_useEv
	nop
	leave
	.cfi_def_cfa 7, 8
	ret
	.cfi_endproc
.LFE4805:
	.size	_ZNSt16_Sp_counted_baseILN9__gnu_cxx12_Lock_policyE2EE24_M_release_last_use_coldEv, .-_ZNSt16_Sp_counted_baseILN9__gnu_cxx12_Lock_policyE2EE24_M_release_last_use_coldEv
	.section	.text._ZNSt12_Vector_baseImSaImEE12_Vector_implC2Ev,"axG",@progbits,_ZNSt12_Vector_baseImSaImEE12_Vector_implC5Ev,comdat
	.align 2
	.weak	_ZNSt12_Vector_baseImSaImEE12_Vector_implC2Ev
	.type	_ZNSt12_Vector_baseImSaImEE12_Vector_implC2Ev, @function
_ZNSt12_Vector_baseImSaImEE12_Vector_implC2Ev:
.LFB4807:
	.cfi_startproc
	pushq	%rbp
	.cfi_def_cfa_offset 16
	.cfi_offset 6, -16
	movq	%rsp, %rbp
	.cfi_def_cfa_register 6
	subq	$16, %rsp
	movq	%rdi, -8(%rbp)
	movq	-8(%rbp), %rax
	movq	%rax, %rdi
	call	_ZNSaImEC2Ev
	movq	-8(%rbp), %rax
	movq	%rax, %rdi
	call	_ZNSt12_Vector_baseImSaImEE17_Vector_impl_dataC2Ev
	nop
	leave
	.cfi_def_cfa 7, 8
	ret
	.cfi_endproc
.LFE4807:
	.size	_ZNSt12_Vector_baseImSaImEE12_Vector_implC2Ev, .-_ZNSt12_Vector_baseImSaImEE12_Vector_implC2Ev
	.weak	_ZNSt12_Vector_baseImSaImEE12_Vector_implC1Ev
	.set	_ZNSt12_Vector_baseImSaImEE12_Vector_implC1Ev,_ZNSt12_Vector_baseImSaImEE12_Vector_implC2Ev
	.section	.text._ZNSaImED2Ev,"axG",@progbits,_ZNSaImED5Ev,comdat
	.align 2
	.weak	_ZNSaImED2Ev
	.type	_ZNSaImED2Ev, @function
_ZNSaImED2Ev:
.LFB4810:
	.cfi_startproc
	pushq	%rbp
	.cfi_def_cfa_offset 16
	.cfi_offset 6, -16
	movq	%rsp, %rbp
	.cfi_def_cfa_register 6
	subq	$16, %rsp
	movq	%rdi, -8(%rbp)
	movq	-8(%rbp), %rax
	movq	%rax, %rdi
	call	_ZNSt15__new_allocatorImED2Ev
	nop
	leave
	.cfi_def_cfa 7, 8
	ret
	.cfi_endproc
.LFE4810:
	.size	_ZNSaImED2Ev, .-_ZNSaImED2Ev
	.weak	_ZNSaImED1Ev
	.set	_ZNSaImED1Ev,_ZNSaImED2Ev
	.section	.text._ZNSt12_Vector_baseImSaImEED2Ev,"axG",@progbits,_ZNSt12_Vector_baseImSaImEED5Ev,comdat
	.align 2
	.weak	_ZNSt12_Vector_baseImSaImEED2Ev
	.type	_ZNSt12_Vector_baseImSaImEED2Ev, @function
_ZNSt12_Vector_baseImSaImEED2Ev:
.LFB4813:
	.cfi_startproc
	.cfi_personality 0x9b,DW.ref.__gxx_personality_v0
	.cfi_lsda 0x1b,.LLSDA4813
	pushq	%rbp
	.cfi_def_cfa_offset 16
	.cfi_offset 6, -16
	movq	%rsp, %rbp
	.cfi_def_cfa_register 6
	subq	$16, %rsp
	movq	%rdi, -8(%rbp)
	movq	-8(%rbp), %rax
	movq	16(%rax), %rdx
	movq	-8(%rbp), %rax
	movq	(%rax), %rax
	subq	%rax, %rdx
	movq	%rdx, %rax
	sarq	$3, %rax
	movq	%rax, %rdx
	movq	-8(%rbp), %rax
	movq	(%rax), %rcx
	movq	-8(%rbp), %rax
	movq	%rcx, %rsi
	movq	%rax, %rdi
	call	_ZNSt12_Vector_baseImSaImEE13_M_deallocateEPmm
	movq	-8(%rbp), %rax
	movq	%rax, %rdi
	call	_ZNSt12_Vector_baseImSaImEE12_Vector_implD1Ev
	nop
	leave
	.cfi_def_cfa 7, 8
	ret
	.cfi_endproc
.LFE4813:
	.section	.gcc_except_table
.LLSDA4813:
	.byte	0xff
	.byte	0xff
	.byte	0x1
	.uleb128 .LLSDACSE4813-.LLSDACSB4813
.LLSDACSB4813:
.LLSDACSE4813:
	.section	.text._ZNSt12_Vector_baseImSaImEED2Ev,"axG",@progbits,_ZNSt12_Vector_baseImSaImEED5Ev,comdat
	.size	_ZNSt12_Vector_baseImSaImEED2Ev, .-_ZNSt12_Vector_baseImSaImEED2Ev
	.weak	_ZNSt12_Vector_baseImSaImEED1Ev
	.set	_ZNSt12_Vector_baseImSaImEED1Ev,_ZNSt12_Vector_baseImSaImEED2Ev
	.section	.text._ZNSt6vectorImSaImEED2Ev,"axG",@progbits,_ZNSt6vectorImSaImEED5Ev,comdat
	.align 2
	.weak	_ZNSt6vectorImSaImEED2Ev
	.type	_ZNSt6vectorImSaImEED2Ev, @function
_ZNSt6vectorImSaImEED2Ev:
.LFB4816:
	.cfi_startproc
	.cfi_personality 0x9b,DW.ref.__gxx_personality_v0
	.cfi_lsda 0x1b,.LLSDA4816
	pushq	%rbp
	.cfi_def_cfa_offset 16
	.cfi_offset 6, -16
	movq	%rsp, %rbp
	.cfi_def_cfa_register 6
	subq	$16, %rsp
	movq	%rdi, -8(%rbp)
	movq	-8(%rbp), %rax
	movq	%rax, %rdi
	call	_ZNSt12_Vector_baseImSaImEE19_M_get_Tp_allocatorEv
	movq	%rax, %rdx
	movq	-8(%rbp), %rax
	movq	8(%rax), %rcx
	movq	-8(%rbp), %rax
	movq	(%rax), %rax
	movq	%rcx, %rsi
	movq	%rax, %rdi
	call	_ZSt8_DestroyIPmmEvT_S1_RSaIT0_E
	movq	-8(%rbp), %rax
	movq	%rax, %rdi
	call	_ZNSt12_Vector_baseImSaImEED2Ev
	nop
	leave
	.cfi_def_cfa 7, 8
	ret
	.cfi_endproc
.LFE4816:
	.section	.gcc_except_table
.LLSDA4816:
	.byte	0xff
	.byte	0xff
	.byte	0x1
	.uleb128 .LLSDACSE4816-.LLSDACSB4816
.LLSDACSB4816:
.LLSDACSE4816:
	.section	.text._ZNSt6vectorImSaImEED2Ev,"axG",@progbits,_ZNSt6vectorImSaImEED5Ev,comdat
	.size	_ZNSt6vectorImSaImEED2Ev, .-_ZNSt6vectorImSaImEED2Ev
	.weak	_ZNSt6vectorImSaImEED1Ev
	.set	_ZNSt6vectorImSaImEED1Ev,_ZNSt6vectorImSaImEED2Ev
	.section	.text._ZNSt12__shared_ptrIKNSt8__detail4_NFAINSt7__cxx1112regex_traitsIcEEEELN9__gnu_cxx12_Lock_policyE2EED2Ev,"axG",@progbits,_ZNSt12__shared_ptrIKNSt8__detail4_NFAINSt7__cxx1112regex_traitsIcEEEELN9__gnu_cxx12_Lock_policyE2EED5Ev,comdat
	.align 2
	.weak	_ZNSt12__shared_ptrIKNSt8__detail4_NFAINSt7__cxx1112regex_traitsIcEEEELN9__gnu_cxx12_Lock_policyE2EED2Ev
	.type	_ZNSt12__shared_ptrIKNSt8__detail4_NFAINSt7__cxx1112regex_traitsIcEEEELN9__gnu_cxx12_Lock_policyE2EED2Ev, @function
_ZNSt12__shared_ptrIKNSt8__detail4_NFAINSt7__cxx1112regex_traitsIcEEEELN9__gnu_cxx12_Lock_policyE2EED2Ev:
.LFB4821:
	.cfi_startproc
	pushq	%rbp
	.cfi_def_cfa_offset 16
	.cfi_offset 6, -16
	movq	%rsp, %rbp
	.cfi_def_cfa_register 6
	subq	$16, %rsp
	movq	%rdi, -8(%rbp)
	movq	-8(%rbp), %rax
	addq	$8, %rax
	movq	%rax, %rdi
	call	_ZNSt14__shared_countILN9__gnu_cxx12_Lock_policyE2EED1Ev
	nop
	leave
	.cfi_def_cfa 7, 8
	ret
	.cfi_endproc
.LFE4821:
	.size	_ZNSt12__shared_ptrIKNSt8__detail4_NFAINSt7__cxx1112regex_traitsIcEEEELN9__gnu_cxx12_Lock_policyE2EED2Ev, .-_ZNSt12__shared_ptrIKNSt8__detail4_NFAINSt7__cxx1112regex_traitsIcEEEELN9__gnu_cxx12_Lock_policyE2EED2Ev
	.weak	_ZNSt12__shared_ptrIKNSt8__detail4_NFAINSt7__cxx1112regex_traitsIcEEEELN9__gnu_cxx12_Lock_policyE2EED1Ev
	.set	_ZNSt12__shared_ptrIKNSt8__detail4_NFAINSt7__cxx1112regex_traitsIcEEEELN9__gnu_cxx12_Lock_policyE2EED1Ev,_ZNSt12__shared_ptrIKNSt8__detail4_NFAINSt7__cxx1112regex_traitsIcEEEELN9__gnu_cxx12_Lock_policyE2EED2Ev
	.section	.text._ZNSt10shared_ptrIKNSt8__detail4_NFAINSt7__cxx1112regex_traitsIcEEEEED2Ev,"axG",@progbits,_ZNSt10shared_ptrIKNSt8__detail4_NFAINSt7__cxx1112regex_traitsIcEEEEED5Ev,comdat
	.align 2
	.weak	_ZNSt10shared_ptrIKNSt8__detail4_NFAINSt7__cxx1112regex_traitsIcEEEEED2Ev
	.type	_ZNSt10shared_ptrIKNSt8__detail4_NFAINSt7__cxx1112regex_traitsIcEEEEED2Ev, @function
_ZNSt10shared_ptrIKNSt8__detail4_NFAINSt7__cxx1112regex_traitsIcEEEEED2Ev:
.LFB4823:
	.cfi_startproc
	pushq	%rbp
	.cfi_def_cfa_offset 16
	.cfi_offset 6, -16
	movq	%rsp, %rbp
	.cfi_def_cfa_register 6
	subq	$16, %rsp
	movq	%rdi, -8(%rbp)
	movq	-8(%rbp), %rax
	movq	%rax, %rdi
	call	_ZNSt12__shared_ptrIKNSt8__detail4_NFAINSt7__cxx1112regex_traitsIcEEEELN9__gnu_cxx12_Lock_policyE2EED2Ev
	nop
	leave
	.cfi_def_cfa 7, 8
	ret
	.cfi_endproc
.LFE4823:
	.size	_ZNSt10shared_ptrIKNSt8__detail4_NFAINSt7__cxx1112regex_traitsIcEEEEED2Ev, .-_ZNSt10shared_ptrIKNSt8__detail4_NFAINSt7__cxx1112regex_traitsIcEEEEED2Ev
	.weak	_ZNSt10shared_ptrIKNSt8__detail4_NFAINSt7__cxx1112regex_traitsIcEEEEED1Ev
	.set	_ZNSt10shared_ptrIKNSt8__detail4_NFAINSt7__cxx1112regex_traitsIcEEEEED1Ev,_ZNSt10shared_ptrIKNSt8__detail4_NFAINSt7__cxx1112regex_traitsIcEEEEED2Ev
	.section	.text._ZNSt7__cxx1111basic_regexIcNS_12regex_traitsIcEEEC2EPKcNSt15regex_constants18syntax_option_typeE,"axG",@progbits,_ZNSt7__cxx1111basic_regexIcNS_12regex_traitsIcEEEC5EPKcNSt15regex_constants18syntax_option_typeE,comdat
	.align 2
	.weak	_ZNSt7__cxx1111basic_regexIcNS_12regex_traitsIcEEEC2EPKcNSt15regex_constants18syntax_option_typeE
	.type	_ZNSt7__cxx1111basic_regexIcNS_12regex_traitsIcEEEC2EPKcNSt15regex_constants18syntax_option_typeE, @function
_ZNSt7__cxx1111basic_regexIcNS_12regex_traitsIcEEEC2EPKcNSt15regex_constants18syntax_option_typeE:
.LFB4825:
	.cfi_startproc
	.cfi_personality 0x9b,DW.ref.__gxx_personality_v0
	.cfi_lsda 0x1b,.LLSDA4825
	pushq	%rbp
	.cfi_def_cfa_offset 16
	.cfi_offset 6, -16
	movq	%rsp, %rbp
	.cfi_def_cfa_register 6
	pushq	%rbx
	subq	$40, %rsp
	.cfi_offset 3, -24
	movq	%rdi, -24(%rbp)
	movq	%rsi, -32(%rbp)
	movl	%edx, -36(%rbp)
	movq	-24(%rbp), %rax
	addq	$8, %rax
	movq	%rax, %rdi
	call	_ZNSt6localeC1Ev@PLT
	movq	-24(%rbp), %rax
	addq	$16, %rax
	movq	%rax, %rdi
	call	_ZNSt10shared_ptrIKNSt8__detail4_NFAINSt7__cxx1112regex_traitsIcEEEEEC1Ev
	movq	-32(%rbp), %rax
	movq	%rax, %rdi
.LEHB77:
	call	_ZNSt7__cxx1112regex_traitsIcE6lengthEPKc
	movq	-32(%rbp), %rdx
	leaq	(%rax,%rdx), %rdi
	movl	-36(%rbp), %edx
	movq	-32(%rbp), %rsi
	movq	-24(%rbp), %rax
	movl	%edx, %ecx
	movq	%rdi, %rdx
	movq	%rax, %rdi
	call	_ZNSt7__cxx1111basic_regexIcNS_12regex_traitsIcEEE10_M_compileEPKcS5_NSt15regex_constants18syntax_option_typeE
.LEHE77:
	jmp	.L432
.L431:
	movq	%rax, %rbx
	movq	-24(%rbp), %rax
	addq	$16, %rax
	movq	%rax, %rdi
	call	_ZNSt10shared_ptrIKNSt8__detail4_NFAINSt7__cxx1112regex_traitsIcEEEEED1Ev
	movq	-24(%rbp), %rax
	addq	$8, %rax
	movq	%rax, %rdi
	call	_ZNSt6localeD1Ev@PLT
	movq	%rbx, %rax
	movq	%rax, %rdi
.LEHB78:
	call	_Unwind_Resume@PLT
.LEHE78:
.L432:
	movq	-8(%rbp), %rbx
	leave
	.cfi_def_cfa 7, 8
	ret
	.cfi_endproc
.LFE4825:
	.section	.gcc_except_table
.LLSDA4825:
	.byte	0xff
	.byte	0xff
	.byte	0x1
	.uleb128 .LLSDACSE4825-.LLSDACSB4825
.LLSDACSB4825:
	.uleb128 .LEHB77-.LFB4825
	.uleb128 .LEHE77-.LEHB77
	.uleb128 .L431-.LFB4825
	.uleb128 0
	.uleb128 .LEHB78-.LFB4825
	.uleb128 .LEHE78-.LEHB78
	.uleb128 0
	.uleb128 0
.LLSDACSE4825:
	.section	.text._ZNSt7__cxx1111basic_regexIcNS_12regex_traitsIcEEEC2EPKcNSt15regex_constants18syntax_option_typeE,"axG",@progbits,_ZNSt7__cxx1111basic_regexIcNS_12regex_traitsIcEEEC5EPKcNSt15regex_constants18syntax_option_typeE,comdat
	.size	_ZNSt7__cxx1111basic_regexIcNS_12regex_traitsIcEEEC2EPKcNSt15regex_constants18syntax_option_typeE, .-_ZNSt7__cxx1111basic_regexIcNS_12regex_traitsIcEEEC2EPKcNSt15regex_constants18syntax_option_typeE
	.weak	_ZNSt7__cxx1111basic_regexIcNS_12regex_traitsIcEEEC1EPKcNSt15regex_constants18syntax_option_typeE
	.set	_ZNSt7__cxx1111basic_regexIcNS_12regex_traitsIcEEEC1EPKcNSt15regex_constants18syntax_option_typeE,_ZNSt7__cxx1111basic_regexIcNS_12regex_traitsIcEEEC2EPKcNSt15regex_constants18syntax_option_typeE
	.section	.text._ZNSt7__cxx1111basic_regexIcNS_12regex_traitsIcEEED2Ev,"axG",@progbits,_ZNSt7__cxx1111basic_regexIcNS_12regex_traitsIcEEED5Ev,comdat
	.align 2
	.weak	_ZNSt7__cxx1111basic_regexIcNS_12regex_traitsIcEEED2Ev
	.type	_ZNSt7__cxx1111basic_regexIcNS_12regex_traitsIcEEED2Ev, @function
_ZNSt7__cxx1111basic_regexIcNS_12regex_traitsIcEEED2Ev:
.LFB4828:
	.cfi_startproc
	pushq	%rbp
	.cfi_def_cfa_offset 16
	.cfi_offset 6, -16
	movq	%rsp, %rbp
	.cfi_def_cfa_register 6
	subq	$16, %rsp
	movq	%rdi, -8(%rbp)
	movq	-8(%rbp), %rax
	addq	$16, %rax
	movq	%rax, %rdi
	call	_ZNSt10shared_ptrIKNSt8__detail4_NFAINSt7__cxx1112regex_traitsIcEEEEED1Ev
	movq	-8(%rbp), %rax
	addq	$8, %rax
	movq	%rax, %rdi
	call	_ZNSt6localeD1Ev@PLT
	nop
	leave
	.cfi_def_cfa 7, 8
	ret
	.cfi_endproc
.LFE4828:
	.size	_ZNSt7__cxx1111basic_regexIcNS_12regex_traitsIcEEED2Ev, .-_ZNSt7__cxx1111basic_regexIcNS_12regex_traitsIcEEED2Ev
	.weak	_ZNSt7__cxx1111basic_regexIcNS_12regex_traitsIcEEED1Ev
	.set	_ZNSt7__cxx1111basic_regexIcNS_12regex_traitsIcEEED1Ev,_ZNSt7__cxx1111basic_regexIcNS_12regex_traitsIcEEED2Ev
	.section	.text._ZSt13regex_replaceINSt7__cxx1112regex_traitsIcEEcSt11char_traitsIcESaIcEENS0_12basic_stringIT0_T1_T2_EERKSA_RKNS0_11basic_regexIS7_T_EEPKS7_NSt15regex_constants15match_flag_typeE,"axG",@progbits,_ZSt13regex_replaceINSt7__cxx1112regex_traitsIcEEcSt11char_traitsIcESaIcEENS0_12basic_stringIT0_T1_T2_EERKSA_RKNS0_11basic_regexIS7_T_EEPKS7_NSt15regex_constants15match_flag_typeE,comdat
	.weak	_ZSt13regex_replaceINSt7__cxx1112regex_traitsIcEEcSt11char_traitsIcESaIcEENS0_12basic_stringIT0_T1_T2_EERKSA_RKNS0_11basic_regexIS7_T_EEPKS7_NSt15regex_constants15match_flag_typeE
	.type	_ZSt13regex_replaceINSt7__cxx1112regex_traitsIcEEcSt11char_traitsIcESaIcEENS0_12basic_stringIT0_T1_T2_EERKSA_RKNS0_11basic_regexIS7_T_EEPKS7_NSt15regex_constants15match_flag_typeE, @function
_ZSt13regex_replaceINSt7__cxx1112regex_traitsIcEEcSt11char_traitsIcESaIcEENS0_12basic_stringIT0_T1_T2_EERKSA_RKNS0_11basic_regexIS7_T_EEPKS7_NSt15regex_constants15match_flag_typeE:
.LFB4830:
	.cfi_startproc
	.cfi_personality 0x9b,DW.ref.__gxx_personality_v0
	.cfi_lsda 0x1b,.LLSDA4830
	pushq	%rbp
	.cfi_def_cfa_offset 16
	.cfi_offset 6, -16
	movq	%rsp, %rbp
	.cfi_def_cfa_register 6
	pushq	%r12
	pushq	%rbx
	subq	$48, %rsp
	.cfi_offset 12, -24
	.cfi_offset 3, -32
	movq	%rdi, -24(%rbp)
	movq	%rsi, -32(%rbp)
	movq	%rdx, -40(%rbp)
	movq	%rcx, -48(%rbp)
	movl	%r8d, -52(%rbp)
	movq	-24(%rbp), %rax
	movq	%rax, %rdi
	call	_ZNSt7__cxx1112basic_stringIcSt11char_traitsIcESaIcEEC1Ev@PLT
	movq	-32(%rbp), %rax
	movq	%rax, %rdi
	call	_ZNKSt7__cxx1112basic_stringIcSt11char_traitsIcESaIcEE3endEv@PLT
	movq	%rax, %r12
	movq	-32(%rbp), %rax
	movq	%rax, %rdi
	call	_ZNKSt7__cxx1112basic_stringIcSt11char_traitsIcESaIcEE5beginEv@PLT
	movq	%rax, %rbx
	movq	-24(%rbp), %rax
	movq	%rax, %rdi
.LEHB79:
	call	_ZSt13back_inserterINSt7__cxx1112basic_stringIcSt11char_traitsIcESaIcEEEESt20back_insert_iteratorIT_ERS7_
	movq	%rax, %rdi
	movl	-52(%rbp), %ecx
	movq	-48(%rbp), %rdx
	movq	-40(%rbp), %rax
	movl	%ecx, %r9d
	movq	%rdx, %r8
	movq	%rax, %rcx
	movq	%r12, %rdx
	movq	%rbx, %rsi
	call	_ZSt13regex_replaceISt20back_insert_iteratorINSt7__cxx1112basic_stringIcSt11char_traitsIcESaIcEEEEN9__gnu_cxx17__normal_iteratorIPKcS6_EENS1_12regex_traitsIcEEcET_SF_T0_SG_RKNS1_11basic_regexIT2_T1_EEPKSI_NSt15regex_constants15match_flag_typeE
.LEHE79:
	jmp	.L438
.L437:
	movq	%rax, %rbx
	movq	-24(%rbp), %rax
	movq	%rax, %rdi
	call	_ZNSt7__cxx1112basic_stringIcSt11char_traitsIcESaIcEED1Ev@PLT
	movq	%rbx, %rax
	movq	%rax, %rdi
.LEHB80:
	call	_Unwind_Resume@PLT
.LEHE80:
.L438:
	movq	-24(%rbp), %rax
	addq	$48, %rsp
	popq	%rbx
	popq	%r12
	popq	%rbp
	.cfi_def_cfa 7, 8
	ret
	.cfi_endproc
.LFE4830:
	.section	.gcc_except_table
.LLSDA4830:
	.byte	0xff
	.byte	0xff
	.byte	0x1
	.uleb128 .LLSDACSE4830-.LLSDACSB4830
.LLSDACSB4830:
	.uleb128 .LEHB79-.LFB4830
	.uleb128 .LEHE79-.LEHB79
	.uleb128 .L437-.LFB4830
	.uleb128 0
	.uleb128 .LEHB80-.LFB4830
	.uleb128 .LEHE80-.LEHB80
	.uleb128 0
	.uleb128 0
.LLSDACSE4830:
	.section	.text._ZSt13regex_replaceINSt7__cxx1112regex_traitsIcEEcSt11char_traitsIcESaIcEENS0_12basic_stringIT0_T1_T2_EERKSA_RKNS0_11basic_regexIS7_T_EEPKS7_NSt15regex_constants15match_flag_typeE,"axG",@progbits,_ZSt13regex_replaceINSt7__cxx1112regex_traitsIcEEcSt11char_traitsIcESaIcEENS0_12basic_stringIT0_T1_T2_EERKSA_RKNS0_11basic_regexIS7_T_EEPKS7_NSt15regex_constants15match_flag_typeE,comdat
	.size	_ZSt13regex_replaceINSt7__cxx1112regex_traitsIcEEcSt11char_traitsIcESaIcEENS0_12basic_stringIT0_T1_T2_EERKSA_RKNS0_11basic_regexIS7_T_EEPKS7_NSt15regex_constants15match_flag_typeE, .-_ZSt13regex_replaceINSt7__cxx1112regex_traitsIcEEcSt11char_traitsIcESaIcEENS0_12basic_stringIT0_T1_T2_EERKSA_RKNS0_11basic_regexIS7_T_EEPKS7_NSt15regex_constants15match_flag_typeE
	.section	.text._ZNSt12_Vector_baseINSt7__cxx1112basic_stringIcSt11char_traitsIcESaIcEEESaIS5_EE12_Vector_implC2Ev,"axG",@progbits,_ZNSt12_Vector_baseINSt7__cxx1112basic_stringIcSt11char_traitsIcESaIcEEESaIS5_EE12_Vector_implC5Ev,comdat
	.align 2
	.weak	_ZNSt12_Vector_baseINSt7__cxx1112basic_stringIcSt11char_traitsIcESaIcEEESaIS5_EE12_Vector_implC2Ev
	.type	_ZNSt12_Vector_baseINSt7__cxx1112basic_stringIcSt11char_traitsIcESaIcEEESaIS5_EE12_Vector_implC2Ev, @function
_ZNSt12_Vector_baseINSt7__cxx1112basic_stringIcSt11char_traitsIcESaIcEEESaIS5_EE12_Vector_implC2Ev:
.LFB4833:
	.cfi_startproc
	pushq	%rbp
	.cfi_def_cfa_offset 16
	.cfi_offset 6, -16
	movq	%rsp, %rbp
	.cfi_def_cfa_register 6
	subq	$16, %rsp
	movq	%rdi, -8(%rbp)
	movq	-8(%rbp), %rax
	movq	%rax, %rdi
	call	_ZNSaINSt7__cxx1112basic_stringIcSt11char_traitsIcESaIcEEEEC2Ev
	movq	-8(%rbp), %rax
	movq	%rax, %rdi
	call	_ZNSt12_Vector_baseINSt7__cxx1112basic_stringIcSt11char_traitsIcESaIcEEESaIS5_EE17_Vector_impl_dataC2Ev
	nop
	leave
	.cfi_def_cfa 7, 8
	ret
	.cfi_endproc
.LFE4833:
	.size	_ZNSt12_Vector_baseINSt7__cxx1112basic_stringIcSt11char_traitsIcESaIcEEESaIS5_EE12_Vector_implC2Ev, .-_ZNSt12_Vector_baseINSt7__cxx1112basic_stringIcSt11char_traitsIcESaIcEEESaIS5_EE12_Vector_implC2Ev
	.weak	_ZNSt12_Vector_baseINSt7__cxx1112basic_stringIcSt11char_traitsIcESaIcEEESaIS5_EE12_Vector_implC1Ev
	.set	_ZNSt12_Vector_baseINSt7__cxx1112basic_stringIcSt11char_traitsIcESaIcEEESaIS5_EE12_Vector_implC1Ev,_ZNSt12_Vector_baseINSt7__cxx1112basic_stringIcSt11char_traitsIcESaIcEEESaIS5_EE12_Vector_implC2Ev
	.section	.text._ZNSaINSt7__cxx1112basic_stringIcSt11char_traitsIcESaIcEEEED2Ev,"axG",@progbits,_ZNSaINSt7__cxx1112basic_stringIcSt11char_traitsIcESaIcEEEED5Ev,comdat
	.align 2
	.weak	_ZNSaINSt7__cxx1112basic_stringIcSt11char_traitsIcESaIcEEEED2Ev
	.type	_ZNSaINSt7__cxx1112basic_stringIcSt11char_traitsIcESaIcEEEED2Ev, @function
_ZNSaINSt7__cxx1112basic_stringIcSt11char_traitsIcESaIcEEEED2Ev:
.LFB4836:
	.cfi_startproc
	pushq	%rbp
	.cfi_def_cfa_offset 16
	.cfi_offset 6, -16
	movq	%rsp, %rbp
	.cfi_def_cfa_register 6
	subq	$16, %rsp
	movq	%rdi, -8(%rbp)
	movq	-8(%rbp), %rax
	movq	%rax, %rdi
	call	_ZNSt15__new_allocatorINSt7__cxx1112basic_stringIcSt11char_traitsIcESaIcEEEED2Ev
	nop
	leave
	.cfi_def_cfa 7, 8
	ret
	.cfi_endproc
.LFE4836:
	.size	_ZNSaINSt7__cxx1112basic_stringIcSt11char_traitsIcESaIcEEEED2Ev, .-_ZNSaINSt7__cxx1112basic_stringIcSt11char_traitsIcESaIcEEEED2Ev
	.weak	_ZNSaINSt7__cxx1112basic_stringIcSt11char_traitsIcESaIcEEEED1Ev
	.set	_ZNSaINSt7__cxx1112basic_stringIcSt11char_traitsIcESaIcEEEED1Ev,_ZNSaINSt7__cxx1112basic_stringIcSt11char_traitsIcESaIcEEEED2Ev
	.section	.text._ZNSt12_Vector_baseINSt7__cxx1112basic_stringIcSt11char_traitsIcESaIcEEESaIS5_EED2Ev,"axG",@progbits,_ZNSt12_Vector_baseINSt7__cxx1112basic_stringIcSt11char_traitsIcESaIcEEESaIS5_EED5Ev,comdat
	.align 2
	.weak	_ZNSt12_Vector_baseINSt7__cxx1112basic_stringIcSt11char_traitsIcESaIcEEESaIS5_EED2Ev
	.type	_ZNSt12_Vector_baseINSt7__cxx1112basic_stringIcSt11char_traitsIcESaIcEEESaIS5_EED2Ev, @function
_ZNSt12_Vector_baseINSt7__cxx1112basic_stringIcSt11char_traitsIcESaIcEEESaIS5_EED2Ev:
.LFB4839:
	.cfi_startproc
	.cfi_personality 0x9b,DW.ref.__gxx_personality_v0
	.cfi_lsda 0x1b,.LLSDA4839
	pushq	%rbp
	.cfi_def_cfa_offset 16
	.cfi_offset 6, -16
	movq	%rsp, %rbp
	.cfi_def_cfa_register 6
	subq	$16, %rsp
	movq	%rdi, -8(%rbp)
	movq	-8(%rbp), %rax
	movq	16(%rax), %rdx
	movq	-8(%rbp), %rax
	movq	(%rax), %rax
	subq	%rax, %rdx
	movq	%rdx, %rax
	sarq	$5, %rax
	movq	%rax, %rdx
	movq	-8(%rbp), %rax
	movq	(%rax), %rcx
	movq	-8(%rbp), %rax
	movq	%rcx, %rsi
	movq	%rax, %rdi
	call	_ZNSt12_Vector_baseINSt7__cxx1112basic_stringIcSt11char_traitsIcESaIcEEESaIS5_EE13_M_deallocateEPS5_m
	movq	-8(%rbp), %rax
	movq	%rax, %rdi
	call	_ZNSt12_Vector_baseINSt7__cxx1112basic_stringIcSt11char_traitsIcESaIcEEESaIS5_EE12_Vector_implD1Ev
	nop
	leave
	.cfi_def_cfa 7, 8
	ret
	.cfi_endproc
.LFE4839:
	.section	.gcc_except_table
.LLSDA4839:
	.byte	0xff
	.byte	0xff
	.byte	0x1
	.uleb128 .LLSDACSE4839-.LLSDACSB4839
.LLSDACSB4839:
.LLSDACSE4839:
	.section	.text._ZNSt12_Vector_baseINSt7__cxx1112basic_stringIcSt11char_traitsIcESaIcEEESaIS5_EED2Ev,"axG",@progbits,_ZNSt12_Vector_baseINSt7__cxx1112basic_stringIcSt11char_traitsIcESaIcEEESaIS5_EED5Ev,comdat
	.size	_ZNSt12_Vector_baseINSt7__cxx1112basic_stringIcSt11char_traitsIcESaIcEEESaIS5_EED2Ev, .-_ZNSt12_Vector_baseINSt7__cxx1112basic_stringIcSt11char_traitsIcESaIcEEESaIS5_EED2Ev
	.weak	_ZNSt12_Vector_baseINSt7__cxx1112basic_stringIcSt11char_traitsIcESaIcEEESaIS5_EED1Ev
	.set	_ZNSt12_Vector_baseINSt7__cxx1112basic_stringIcSt11char_traitsIcESaIcEEESaIS5_EED1Ev,_ZNSt12_Vector_baseINSt7__cxx1112basic_stringIcSt11char_traitsIcESaIcEEESaIS5_EED2Ev
	.section	.text._ZNSt6vectorINSt7__cxx1112basic_stringIcSt11char_traitsIcESaIcEEESaIS5_EED2Ev,"axG",@progbits,_ZNSt6vectorINSt7__cxx1112basic_stringIcSt11char_traitsIcESaIcEEESaIS5_EED5Ev,comdat
	.align 2
	.weak	_ZNSt6vectorINSt7__cxx1112basic_stringIcSt11char_traitsIcESaIcEEESaIS5_EED2Ev
	.type	_ZNSt6vectorINSt7__cxx1112basic_stringIcSt11char_traitsIcESaIcEEESaIS5_EED2Ev, @function
_ZNSt6vectorINSt7__cxx1112basic_stringIcSt11char_traitsIcESaIcEEESaIS5_EED2Ev:
.LFB4842:
	.cfi_startproc
	.cfi_personality 0x9b,DW.ref.__gxx_personality_v0
	.cfi_lsda 0x1b,.LLSDA4842
	pushq	%rbp
	.cfi_def_cfa_offset 16
	.cfi_offset 6, -16
	movq	%rsp, %rbp
	.cfi_def_cfa_register 6
	subq	$16, %rsp
	movq	%rdi, -8(%rbp)
	movq	-8(%rbp), %rax
	movq	%rax, %rdi
	call	_ZNSt12_Vector_baseINSt7__cxx1112basic_stringIcSt11char_traitsIcESaIcEEESaIS5_EE19_M_get_Tp_allocatorEv
	movq	%rax, %rdx
	movq	-8(%rbp), %rax
	movq	8(%rax), %rcx
	movq	-8(%rbp), %rax
	movq	(%rax), %rax
	movq	%rcx, %rsi
	movq	%rax, %rdi
	call	_ZSt8_DestroyIPNSt7__cxx1112basic_stringIcSt11char_traitsIcESaIcEEES5_EvT_S7_RSaIT0_E
	movq	-8(%rbp), %rax
	movq	%rax, %rdi
	call	_ZNSt12_Vector_baseINSt7__cxx1112basic_stringIcSt11char_traitsIcESaIcEEESaIS5_EED2Ev
	nop
	leave
	.cfi_def_cfa 7, 8
	ret
	.cfi_endproc
.LFE4842:
	.section	.gcc_except_table
.LLSDA4842:
	.byte	0xff
	.byte	0xff
	.byte	0x1
	.uleb128 .LLSDACSE4842-.LLSDACSB4842
.LLSDACSB4842:
.LLSDACSE4842:
	.section	.text._ZNSt6vectorINSt7__cxx1112basic_stringIcSt11char_traitsIcESaIcEEESaIS5_EED2Ev,"axG",@progbits,_ZNSt6vectorINSt7__cxx1112basic_stringIcSt11char_traitsIcESaIcEEESaIS5_EED5Ev,comdat
	.size	_ZNSt6vectorINSt7__cxx1112basic_stringIcSt11char_traitsIcESaIcEEESaIS5_EED2Ev, .-_ZNSt6vectorINSt7__cxx1112basic_stringIcSt11char_traitsIcESaIcEEESaIS5_EED2Ev
	.weak	_ZNSt6vectorINSt7__cxx1112basic_stringIcSt11char_traitsIcESaIcEEESaIS5_EED1Ev
	.set	_ZNSt6vectorINSt7__cxx1112basic_stringIcSt11char_traitsIcESaIcEEESaIS5_EED1Ev,_ZNSt6vectorINSt7__cxx1112basic_stringIcSt11char_traitsIcESaIcEEESaIS5_EED2Ev
	.section	.text._ZN9__gnu_cxxneIPKcNSt7__cxx1112basic_stringIcSt11char_traitsIcESaIcEEEEEbRKNS_17__normal_iteratorIT_T0_EESE_,"axG",@progbits,_ZN9__gnu_cxxneIPKcNSt7__cxx1112basic_stringIcSt11char_traitsIcESaIcEEEEEbRKNS_17__normal_iteratorIT_T0_EESE_,comdat
	.weak	_ZN9__gnu_cxxneIPKcNSt7__cxx1112basic_stringIcSt11char_traitsIcESaIcEEEEEbRKNS_17__normal_iteratorIT_T0_EESE_
	.type	_ZN9__gnu_cxxneIPKcNSt7__cxx1112basic_stringIcSt11char_traitsIcESaIcEEEEEbRKNS_17__normal_iteratorIT_T0_EESE_, @function
_ZN9__gnu_cxxneIPKcNSt7__cxx1112basic_stringIcSt11char_traitsIcESaIcEEEEEbRKNS_17__normal_iteratorIT_T0_EESE_:
.LFB4847:
	.cfi_startproc
	pushq	%rbp
	.cfi_def_cfa_offset 16
	.cfi_offset 6, -16
	movq	%rsp, %rbp
	.cfi_def_cfa_register 6
	pushq	%rbx
	subq	$24, %rsp
	.cfi_offset 3, -24
	movq	%rdi, -24(%rbp)
	movq	%rsi, -32(%rbp)
	movq	-24(%rbp), %rax
	movq	%rax, %rdi
	call	_ZNK9__gnu_cxx17__normal_iteratorIPKcNSt7__cxx1112basic_stringIcSt11char_traitsIcESaIcEEEE4baseEv
	movq	(%rax), %rbx
	movq	-32(%rbp), %rax
	movq	%rax, %rdi
	call	_ZNK9__gnu_cxx17__normal_iteratorIPKcNSt7__cxx1112basic_stringIcSt11char_traitsIcESaIcEEEE4baseEv
	movq	(%rax), %rax
	cmpq	%rax, %rbx
	setne	%al
	movq	-8(%rbp), %rbx
	leave
	.cfi_def_cfa 7, 8
	ret
	.cfi_endproc
.LFE4847:
	.size	_ZN9__gnu_cxxneIPKcNSt7__cxx1112basic_stringIcSt11char_traitsIcESaIcEEEEEbRKNS_17__normal_iteratorIT_T0_EESE_, .-_ZN9__gnu_cxxneIPKcNSt7__cxx1112basic_stringIcSt11char_traitsIcESaIcEEEEEbRKNS_17__normal_iteratorIT_T0_EESE_
	.section	.text._ZN9__gnu_cxx17__normal_iteratorIPKcNSt7__cxx1112basic_stringIcSt11char_traitsIcESaIcEEEEppEv,"axG",@progbits,_ZN9__gnu_cxx17__normal_iteratorIPKcNSt7__cxx1112basic_stringIcSt11char_traitsIcESaIcEEEEppEv,comdat
	.align 2
	.weak	_ZN9__gnu_cxx17__normal_iteratorIPKcNSt7__cxx1112basic_stringIcSt11char_traitsIcESaIcEEEEppEv
	.type	_ZN9__gnu_cxx17__normal_iteratorIPKcNSt7__cxx1112basic_stringIcSt11char_traitsIcESaIcEEEEppEv, @function
_ZN9__gnu_cxx17__normal_iteratorIPKcNSt7__cxx1112basic_stringIcSt11char_traitsIcESaIcEEEEppEv:
.LFB4848:
	.cfi_startproc
	pushq	%rbp
	.cfi_def_cfa_offset 16
	.cfi_offset 6, -16
	movq	%rsp, %rbp
	.cfi_def_cfa_register 6
	movq	%rdi, -8(%rbp)
	movq	-8(%rbp), %rax
	movq	(%rax), %rax
	leaq	1(%rax), %rdx
	movq	-8(%rbp), %rax
	movq	%rdx, (%rax)
	movq	-8(%rbp), %rax
	popq	%rbp
	.cfi_def_cfa 7, 8
	ret
	.cfi_endproc
.LFE4848:
	.size	_ZN9__gnu_cxx17__normal_iteratorIPKcNSt7__cxx1112basic_stringIcSt11char_traitsIcESaIcEEEEppEv, .-_ZN9__gnu_cxx17__normal_iteratorIPKcNSt7__cxx1112basic_stringIcSt11char_traitsIcESaIcEEEEppEv
	.section	.text._ZNK9__gnu_cxx17__normal_iteratorIPKcNSt7__cxx1112basic_stringIcSt11char_traitsIcESaIcEEEEdeEv,"axG",@progbits,_ZNK9__gnu_cxx17__normal_iteratorIPKcNSt7__cxx1112basic_stringIcSt11char_traitsIcESaIcEEEEdeEv,comdat
	.align 2
	.weak	_ZNK9__gnu_cxx17__normal_iteratorIPKcNSt7__cxx1112basic_stringIcSt11char_traitsIcESaIcEEEEdeEv
	.type	_ZNK9__gnu_cxx17__normal_iteratorIPKcNSt7__cxx1112basic_stringIcSt11char_traitsIcESaIcEEEEdeEv, @function
_ZNK9__gnu_cxx17__normal_iteratorIPKcNSt7__cxx1112basic_stringIcSt11char_traitsIcESaIcEEEEdeEv:
.LFB4849:
	.cfi_startproc
	pushq	%rbp
	.cfi_def_cfa_offset 16
	.cfi_offset 6, -16
	movq	%rsp, %rbp
	.cfi_def_cfa_register 6
	movq	%rdi, -8(%rbp)
	movq	-8(%rbp), %rax
	movq	(%rax), %rax
	popq	%rbp
	.cfi_def_cfa 7, 8
	ret
	.cfi_endproc
.LFE4849:
	.size	_ZNK9__gnu_cxx17__normal_iteratorIPKcNSt7__cxx1112basic_stringIcSt11char_traitsIcESaIcEEEEdeEv, .-_ZNK9__gnu_cxx17__normal_iteratorIPKcNSt7__cxx1112basic_stringIcSt11char_traitsIcESaIcEEEEdeEv
	.section	.text._ZNSt6vectorINSt7__cxx1112basic_stringIcSt11char_traitsIcESaIcEEESaIS5_EE9push_backEOS5_,"axG",@progbits,_ZNSt6vectorINSt7__cxx1112basic_stringIcSt11char_traitsIcESaIcEEESaIS5_EE9push_backEOS5_,comdat
	.align 2
	.weak	_ZNSt6vectorINSt7__cxx1112basic_stringIcSt11char_traitsIcESaIcEEESaIS5_EE9push_backEOS5_
	.type	_ZNSt6vectorINSt7__cxx1112basic_stringIcSt11char_traitsIcESaIcEEESaIS5_EE9push_backEOS5_, @function
_ZNSt6vectorINSt7__cxx1112basic_stringIcSt11char_traitsIcESaIcEEESaIS5_EE9push_backEOS5_:
.LFB4850:
	.cfi_startproc
	pushq	%rbp
	.cfi_def_cfa_offset 16
	.cfi_offset 6, -16
	movq	%rsp, %rbp
	.cfi_def_cfa_register 6
	subq	$16, %rsp
	movq	%rdi, -8(%rbp)
	movq	%rsi, -16(%rbp)
	movq	-16(%rbp), %rax
	movq	%rax, %rdi
	call	_ZSt4moveIRNSt7__cxx1112basic_stringIcSt11char_traitsIcESaIcEEEEONSt16remove_referenceIT_E4typeEOS8_
	movq	%rax, %rdx
	movq	-8(%rbp), %rax
	movq	%rdx, %rsi
	movq	%rax, %rdi
	call	_ZNSt6vectorINSt7__cxx1112basic_stringIcSt11char_traitsIcESaIcEEESaIS5_EE12emplace_backIJS5_EEERS5_DpOT_
	nop
	leave
	.cfi_def_cfa 7, 8
	ret
	.cfi_endproc
.LFE4850:
	.size	_ZNSt6vectorINSt7__cxx1112basic_stringIcSt11char_traitsIcESaIcEEESaIS5_EE9push_backEOS5_, .-_ZNSt6vectorINSt7__cxx1112basic_stringIcSt11char_traitsIcESaIcEEESaIS5_EE9push_backEOS5_
	.section	.text._ZStplIcSt11char_traitsIcESaIcEENSt7__cxx1112basic_stringIT_T0_T1_EERKS8_SA_,"axG",@progbits,_ZStplIcSt11char_traitsIcESaIcEENSt7__cxx1112basic_stringIT_T0_T1_EERKS8_SA_,comdat
	.weak	_ZStplIcSt11char_traitsIcESaIcEENSt7__cxx1112basic_stringIT_T0_T1_EERKS8_SA_
	.type	_ZStplIcSt11char_traitsIcESaIcEENSt7__cxx1112basic_stringIT_T0_T1_EERKS8_SA_, @function
_ZStplIcSt11char_traitsIcESaIcEENSt7__cxx1112basic_stringIT_T0_T1_EERKS8_SA_:
.LFB4851:
	.cfi_startproc
	.cfi_personality 0x9b,DW.ref.__gxx_personality_v0
	.cfi_lsda 0x1b,.LLSDA4851
	pushq	%rbp
	.cfi_def_cfa_offset 16
	.cfi_offset 6, -16
	movq	%rsp, %rbp
	.cfi_def_cfa_register 6
	pushq	%rbx
	subq	$40, %rsp
	.cfi_offset 3, -24
	movq	%rdi, -24(%rbp)
	movq	%rsi, -32(%rbp)
	movq	%rdx, -40(%rbp)
	movq	-32(%rbp), %rdx
	movq	-24(%rbp), %rax
	movq	%rdx, %rsi
	movq	%rax, %rdi
.LEHB81:
	call	_ZNSt7__cxx1112basic_stringIcSt11char_traitsIcESaIcEEC1ERKS4_@PLT
.LEHE81:
	movq	-40(%rbp), %rdx
	movq	-24(%rbp), %rax
	movq	%rdx, %rsi
	movq	%rax, %rdi
.LEHB82:
	call	_ZNSt7__cxx1112basic_stringIcSt11char_traitsIcESaIcEE6appendERKS4_@PLT
.LEHE82:
	jmp	.L454
.L453:
	movq	%rax, %rbx
	movq	-24(%rbp), %rax
	movq	%rax, %rdi
	call	_ZNSt7__cxx1112basic_stringIcSt11char_traitsIcESaIcEED1Ev@PLT
	movq	%rbx, %rax
	movq	%rax, %rdi
.LEHB83:
	call	_Unwind_Resume@PLT
.LEHE83:
.L454:
	movq	-24(%rbp), %rax
	movq	-8(%rbp), %rbx
	leave
	.cfi_def_cfa 7, 8
	ret
	.cfi_endproc
.LFE4851:
	.section	.gcc_except_table
.LLSDA4851:
	.byte	0xff
	.byte	0xff
	.byte	0x1
	.uleb128 .LLSDACSE4851-.LLSDACSB4851
.LLSDACSB4851:
	.uleb128 .LEHB81-.LFB4851
	.uleb128 .LEHE81-.LEHB81
	.uleb128 0
	.uleb128 0
	.uleb128 .LEHB82-.LFB4851
	.uleb128 .LEHE82-.LEHB82
	.uleb128 .L453-.LFB4851
	.uleb128 0
	.uleb128 .LEHB83-.LFB4851
	.uleb128 .LEHE83-.LEHB83
	.uleb128 0
	.uleb128 0
.LLSDACSE4851:
	.section	.text._ZStplIcSt11char_traitsIcESaIcEENSt7__cxx1112basic_stringIT_T0_T1_EERKS8_SA_,"axG",@progbits,_ZStplIcSt11char_traitsIcESaIcEENSt7__cxx1112basic_stringIT_T0_T1_EERKS8_SA_,comdat
	.size	_ZStplIcSt11char_traitsIcESaIcEENSt7__cxx1112basic_stringIT_T0_T1_EERKS8_SA_, .-_ZStplIcSt11char_traitsIcESaIcEENSt7__cxx1112basic_stringIT_T0_T1_EERKS8_SA_
	.section	.text._ZStplIcSt11char_traitsIcESaIcEENSt7__cxx1112basic_stringIT_T0_T1_EEPKS5_RKS8_,"axG",@progbits,_ZStplIcSt11char_traitsIcESaIcEENSt7__cxx1112basic_stringIT_T0_T1_EEPKS5_RKS8_,comdat
	.weak	_ZStplIcSt11char_traitsIcESaIcEENSt7__cxx1112basic_stringIT_T0_T1_EEPKS5_RKS8_
	.type	_ZStplIcSt11char_traitsIcESaIcEENSt7__cxx1112basic_stringIT_T0_T1_EEPKS5_RKS8_, @function
_ZStplIcSt11char_traitsIcESaIcEENSt7__cxx1112basic_stringIT_T0_T1_EEPKS5_RKS8_:
.LFB4852:
	.cfi_startproc
	.cfi_personality 0x9b,DW.ref.__gxx_personality_v0
	.cfi_lsda 0x1b,.LLSDA4852
	pushq	%rbp
	.cfi_def_cfa_offset 16
	.cfi_offset 6, -16
	movq	%rsp, %rbp
	.cfi_def_cfa_register 6
	pushq	%rbx
	subq	$56, %rsp
	.cfi_offset 3, -24
	movq	%rdi, -40(%rbp)
	movq	%rsi, -48(%rbp)
	movq	%rdx, -56(%rbp)
	movq	-48(%rbp), %rax
	movq	%rax, %rdi
.LEHB84:
	call	_ZNSt11char_traitsIcE6lengthEPKc
.LEHE84:
	movq	%rax, -24(%rbp)
	leaq	-25(%rbp), %rax
	movq	-56(%rbp), %rdx
	movq	%rdx, %rsi
	movq	%rax, %rdi
	call	_ZNKSt7__cxx1112basic_stringIcSt11char_traitsIcESaIcEE13get_allocatorEv@PLT
	leaq	-26(%rbp), %rax
	leaq	-25(%rbp), %rdx
	movq	%rdx, %rsi
	movq	%rax, %rdi
.LEHB85:
	call	_ZN9__gnu_cxx14__alloc_traitsISaIcEcE17_S_select_on_copyERKS1_
.LEHE85:
	leaq	-26(%rbp), %rdx
	movq	-40(%rbp), %rax
	movq	%rdx, %rsi
	movq	%rax, %rdi
	call	_ZNSt7__cxx1112basic_stringIcSt11char_traitsIcESaIcEEC1ERKS3_@PLT
	leaq	-26(%rbp), %rax
	movq	%rax, %rdi
	call	_ZNSaIcED1Ev@PLT
	leaq	-25(%rbp), %rax
	movq	%rax, %rdi
	call	_ZNSaIcED1Ev@PLT
	movq	-56(%rbp), %rax
	movq	%rax, %rdi
	call	_ZNKSt7__cxx1112basic_stringIcSt11char_traitsIcESaIcEE4sizeEv@PLT
	movq	-24(%rbp), %rdx
	addq	%rax, %rdx
	movq	-40(%rbp), %rax
	movq	%rdx, %rsi
	movq	%rax, %rdi
.LEHB86:
	call	_ZNSt7__cxx1112basic_stringIcSt11char_traitsIcESaIcEE7reserveEm@PLT
	movq	-24(%rbp), %rdx
	movq	-48(%rbp), %rcx
	movq	-40(%rbp), %rax
	movq	%rcx, %rsi
	movq	%rax, %rdi
	call	_ZNSt7__cxx1112basic_stringIcSt11char_traitsIcESaIcEE6appendEPKcm@PLT
	movq	-56(%rbp), %rdx
	movq	-40(%rbp), %rax
	movq	%rdx, %rsi
	movq	%rax, %rdi
	call	_ZNSt7__cxx1112basic_stringIcSt11char_traitsIcESaIcEE6appendERKS4_@PLT
.LEHE86:
	jmp	.L461
.L459:
	movq	%rax, %rbx
	leaq	-25(%rbp), %rax
	movq	%rax, %rdi
	call	_ZNSaIcED1Ev@PLT
	movq	%rbx, %rax
	movq	%rax, %rdi
.LEHB87:
	call	_Unwind_Resume@PLT
.L460:
	movq	%rax, %rbx
	movq	-40(%rbp), %rax
	movq	%rax, %rdi
	call	_ZNSt7__cxx1112basic_stringIcSt11char_traitsIcESaIcEED1Ev@PLT
	movq	%rbx, %rax
	movq	%rax, %rdi
	call	_Unwind_Resume@PLT
.LEHE87:
.L461:
	movq	-40(%rbp), %rax
	movq	-8(%rbp), %rbx
	leave
	.cfi_def_cfa 7, 8
	ret
	.cfi_endproc
.LFE4852:
	.section	.gcc_except_table
.LLSDA4852:
	.byte	0xff
	.byte	0xff
	.byte	0x1
	.uleb128 .LLSDACSE4852-.LLSDACSB4852
.LLSDACSB4852:
	.uleb128 .LEHB84-.LFB4852
	.uleb128 .LEHE84-.LEHB84
	.uleb128 0
	.uleb128 0
	.uleb128 .LEHB85-.LFB4852
	.uleb128 .LEHE85-.LEHB85
	.uleb128 .L459-.LFB4852
	.uleb128 0
	.uleb128 .LEHB86-.LFB4852
	.uleb128 .LEHE86-.LEHB86
	.uleb128 .L460-.LFB4852
	.uleb128 0
	.uleb128 .LEHB87-.LFB4852
	.uleb128 .LEHE87-.LEHB87
	.uleb128 0
	.uleb128 0
.LLSDACSE4852:
	.section	.text._ZStplIcSt11char_traitsIcESaIcEENSt7__cxx1112basic_stringIT_T0_T1_EEPKS5_RKS8_,"axG",@progbits,_ZStplIcSt11char_traitsIcESaIcEENSt7__cxx1112basic_stringIT_T0_T1_EEPKS5_RKS8_,comdat
	.size	_ZStplIcSt11char_traitsIcESaIcEENSt7__cxx1112basic_stringIT_T0_T1_EEPKS5_RKS8_, .-_ZStplIcSt11char_traitsIcESaIcEENSt7__cxx1112basic_stringIT_T0_T1_EEPKS5_RKS8_
	.section	.text._ZStplIcSt11char_traitsIcESaIcEENSt7__cxx1112basic_stringIT_T0_T1_EEOS8_PKS5_,"axG",@progbits,_ZStplIcSt11char_traitsIcESaIcEENSt7__cxx1112basic_stringIT_T0_T1_EEOS8_PKS5_,comdat
	.weak	_ZStplIcSt11char_traitsIcESaIcEENSt7__cxx1112basic_stringIT_T0_T1_EEOS8_PKS5_
	.type	_ZStplIcSt11char_traitsIcESaIcEENSt7__cxx1112basic_stringIT_T0_T1_EEOS8_PKS5_, @function
_ZStplIcSt11char_traitsIcESaIcEENSt7__cxx1112basic_stringIT_T0_T1_EEOS8_PKS5_:
.LFB4853:
	.cfi_startproc
	pushq	%rbp
	.cfi_def_cfa_offset 16
	.cfi_offset 6, -16
	movq	%rsp, %rbp
	.cfi_def_cfa_register 6
	subq	$32, %rsp
	movq	%rdi, -8(%rbp)
	movq	%rsi, -16(%rbp)
	movq	%rdx, -24(%rbp)
	movq	-24(%rbp), %rdx
	movq	-16(%rbp), %rax
	movq	%rdx, %rsi
	movq	%rax, %rdi
	call	_ZNSt7__cxx1112basic_stringIcSt11char_traitsIcESaIcEE6appendEPKc@PLT
	movq	%rax, %rdi
	call	_ZSt4moveIRNSt7__cxx1112basic_stringIcSt11char_traitsIcESaIcEEEEONSt16remove_referenceIT_E4typeEOS8_
	movq	%rax, %rdx
	movq	-8(%rbp), %rax
	movq	%rdx, %rsi
	movq	%rax, %rdi
	call	_ZNSt7__cxx1112basic_stringIcSt11char_traitsIcESaIcEEC1EOS4_@PLT
	movq	-8(%rbp), %rax
	leave
	.cfi_def_cfa 7, 8
	ret
	.cfi_endproc
.LFE4853:
	.size	_ZStplIcSt11char_traitsIcESaIcEENSt7__cxx1112basic_stringIT_T0_T1_EEOS8_PKS5_, .-_ZStplIcSt11char_traitsIcESaIcEENSt7__cxx1112basic_stringIT_T0_T1_EEOS8_PKS5_
	.section	.text._ZNSt7__cxx1111basic_regexIcNS_12regex_traitsIcEEEC2ISt11char_traitsIcESaIcEEERKNS_12basic_stringIcT_T0_EENSt15regex_constants18syntax_option_typeE,"axG",@progbits,_ZNSt7__cxx1111basic_regexIcNS_12regex_traitsIcEEEC5ISt11char_traitsIcESaIcEEERKNS_12basic_stringIcT_T0_EENSt15regex_constants18syntax_option_typeE,comdat
	.align 2
	.weak	_ZNSt7__cxx1111basic_regexIcNS_12regex_traitsIcEEEC2ISt11char_traitsIcESaIcEEERKNS_12basic_stringIcT_T0_EENSt15regex_constants18syntax_option_typeE
	.type	_ZNSt7__cxx1111basic_regexIcNS_12regex_traitsIcEEEC2ISt11char_traitsIcESaIcEEERKNS_12basic_stringIcT_T0_EENSt15regex_constants18syntax_option_typeE, @function
_ZNSt7__cxx1111basic_regexIcNS_12regex_traitsIcEEEC2ISt11char_traitsIcESaIcEEERKNS_12basic_stringIcT_T0_EENSt15regex_constants18syntax_option_typeE:
.LFB4855:
	.cfi_startproc
	.cfi_personality 0x9b,DW.ref.__gxx_personality_v0
	.cfi_lsda 0x1b,.LLSDA4855
	pushq	%rbp
	.cfi_def_cfa_offset 16
	.cfi_offset 6, -16
	movq	%rsp, %rbp
	.cfi_def_cfa_register 6
	pushq	%rbx
	subq	$40, %rsp
	.cfi_offset 3, -24
	movq	%rdi, -24(%rbp)
	movq	%rsi, -32(%rbp)
	movl	%edx, -36(%rbp)
	movq	-24(%rbp), %rax
	addq	$8, %rax
	movq	%rax, %rdi
	call	_ZNSt6localeC1Ev@PLT
	movq	-24(%rbp), %rax
	addq	$16, %rax
	movq	%rax, %rdi
	call	_ZNSt10shared_ptrIKNSt8__detail4_NFAINSt7__cxx1112regex_traitsIcEEEEEC1Ev
	movq	-32(%rbp), %rax
	movq	%rax, %rdi
	call	_ZNKSt7__cxx1112basic_stringIcSt11char_traitsIcESaIcEE4dataEv@PLT
	movq	%rax, %rbx
	movq	-32(%rbp), %rax
	movq	%rax, %rdi
	call	_ZNKSt7__cxx1112basic_stringIcSt11char_traitsIcESaIcEE4sizeEv@PLT
	addq	%rax, %rbx
	movq	-32(%rbp), %rax
	movq	%rax, %rdi
	call	_ZNKSt7__cxx1112basic_stringIcSt11char_traitsIcESaIcEE4dataEv@PLT
	movq	%rax, %rsi
	movl	-36(%rbp), %edx
	movq	-24(%rbp), %rax
	movl	%edx, %ecx
	movq	%rbx, %rdx
	movq	%rax, %rdi
.LEHB88:
	call	_ZNSt7__cxx1111basic_regexIcNS_12regex_traitsIcEEE10_M_compileEPKcS5_NSt15regex_constants18syntax_option_typeE
.LEHE88:
	jmp	.L467
.L466:
	movq	%rax, %rbx
	movq	-24(%rbp), %rax
	addq	$16, %rax
	movq	%rax, %rdi
	call	_ZNSt10shared_ptrIKNSt8__detail4_NFAINSt7__cxx1112regex_traitsIcEEEEED1Ev
	movq	-24(%rbp), %rax
	addq	$8, %rax
	movq	%rax, %rdi
	call	_ZNSt6localeD1Ev@PLT
	movq	%rbx, %rax
	movq	%rax, %rdi
.LEHB89:
	call	_Unwind_Resume@PLT
.LEHE89:
.L467:
	movq	-8(%rbp), %rbx
	leave
	.cfi_def_cfa 7, 8
	ret
	.cfi_endproc
.LFE4855:
	.section	.gcc_except_table
.LLSDA4855:
	.byte	0xff
	.byte	0xff
	.byte	0x1
	.uleb128 .LLSDACSE4855-.LLSDACSB4855
.LLSDACSB4855:
	.uleb128 .LEHB88-.LFB4855
	.uleb128 .LEHE88-.LEHB88
	.uleb128 .L466-.LFB4855
	.uleb128 0
	.uleb128 .LEHB89-.LFB4855
	.uleb128 .LEHE89-.LEHB89
	.uleb128 0
	.uleb128 0
.LLSDACSE4855:
	.section	.text._ZNSt7__cxx1111basic_regexIcNS_12regex_traitsIcEEEC2ISt11char_traitsIcESaIcEEERKNS_12basic_stringIcT_T0_EENSt15regex_constants18syntax_option_typeE,"axG",@progbits,_ZNSt7__cxx1111basic_regexIcNS_12regex_traitsIcEEEC5ISt11char_traitsIcESaIcEEERKNS_12basic_stringIcT_T0_EENSt15regex_constants18syntax_option_typeE,comdat
	.size	_ZNSt7__cxx1111basic_regexIcNS_12regex_traitsIcEEEC2ISt11char_traitsIcESaIcEEERKNS_12basic_stringIcT_T0_EENSt15regex_constants18syntax_option_typeE, .-_ZNSt7__cxx1111basic_regexIcNS_12regex_traitsIcEEEC2ISt11char_traitsIcESaIcEEERKNS_12basic_stringIcT_T0_EENSt15regex_constants18syntax_option_typeE
	.weak	_ZNSt7__cxx1111basic_regexIcNS_12regex_traitsIcEEEC1ISt11char_traitsIcESaIcEEERKNS_12basic_stringIcT_T0_EENSt15regex_constants18syntax_option_typeE
	.set	_ZNSt7__cxx1111basic_regexIcNS_12regex_traitsIcEEEC1ISt11char_traitsIcESaIcEEERKNS_12basic_stringIcT_T0_EENSt15regex_constants18syntax_option_typeE,_ZNSt7__cxx1111basic_regexIcNS_12regex_traitsIcEEEC2ISt11char_traitsIcESaIcEEERKNS_12basic_stringIcT_T0_EENSt15regex_constants18syntax_option_typeE
	.section	.text._ZNSt7__cxx1120regex_token_iteratorIN9__gnu_cxx17__normal_iteratorIPKcNS_12basic_stringIcSt11char_traitsIcESaIcEEEEEcNS_12regex_traitsIcEEEC2ESA_SA_RKNS_11basic_regexIcSC_EEiNSt15regex_constants15match_flag_typeE,"axG",@progbits,_ZNSt7__cxx1120regex_token_iteratorIN9__gnu_cxx17__normal_iteratorIPKcNS_12basic_stringIcSt11char_traitsIcESaIcEEEEEcNS_12regex_traitsIcEEEC5ESA_SA_RKNS_11basic_regexIcSC_EEiNSt15regex_constants15match_flag_typeE,comdat
	.align 2
	.weak	_ZNSt7__cxx1120regex_token_iteratorIN9__gnu_cxx17__normal_iteratorIPKcNS_12basic_stringIcSt11char_traitsIcESaIcEEEEEcNS_12regex_traitsIcEEEC2ESA_SA_RKNS_11basic_regexIcSC_EEiNSt15regex_constants15match_flag_typeE
	.type	_ZNSt7__cxx1120regex_token_iteratorIN9__gnu_cxx17__normal_iteratorIPKcNS_12basic_stringIcSt11char_traitsIcESaIcEEEEEcNS_12regex_traitsIcEEEC2ESA_SA_RKNS_11basic_regexIcSC_EEiNSt15regex_constants15match_flag_typeE, @function
_ZNSt7__cxx1120regex_token_iteratorIN9__gnu_cxx17__normal_iteratorIPKcNS_12basic_stringIcSt11char_traitsIcESaIcEEEEEcNS_12regex_traitsIcEEEC2ESA_SA_RKNS_11basic_regexIcSC_EEiNSt15regex_constants15match_flag_typeE:
.LFB4858:
	.cfi_startproc
	.cfi_personality 0x9b,DW.ref.__gxx_personality_v0
	.cfi_lsda 0x1b,.LLSDA4858
	pushq	%rbp
	.cfi_def_cfa_offset 16
	.cfi_offset 6, -16
	movq	%rsp, %rbp
	.cfi_def_cfa_register 6
	pushq	%rbx
	subq	$72, %rsp
	.cfi_offset 3, -24
	movq	%rdi, -40(%rbp)
	movq	%rsi, -48(%rbp)
	movq	%rdx, -56(%rbp)
	movq	%rcx, -64(%rbp)
	movl	%r8d, -68(%rbp)
	movl	%r9d, -72(%rbp)
	movq	-40(%rbp), %rax
	movl	-72(%rbp), %edi
	movq	-64(%rbp), %rcx
	movq	-56(%rbp), %rdx
	movq	-48(%rbp), %rsi
	movl	%edi, %r8d
	movq	%rax, %rdi
.LEHB90:
	call	_ZNSt7__cxx1114regex_iteratorIN9__gnu_cxx17__normal_iteratorIPKcNS_12basic_stringIcSt11char_traitsIcESaIcEEEEEcNS_12regex_traitsIcEEEC1ESA_SA_RKNS_11basic_regexIcSC_EENSt15regex_constants15match_flag_typeE
.LEHE90:
	movq	-40(%rbp), %rax
	leaq	64(%rax), %rbx
	leaq	-17(%rbp), %rax
	movq	%rax, %rdi
	call	_ZNSaIiEC1Ev
	leaq	-17(%rbp), %rdx
	leaq	-68(%rbp), %rax
	movq	%rdx, %rcx
	movq	%rax, %rdx
	movl	$1, %esi
	movq	%rbx, %rdi
.LEHB91:
	call	_ZNSt6vectorIiSaIiEEC1EmRKiRKS0_
.LEHE91:
	leaq	-17(%rbp), %rax
	movq	%rax, %rdi
	call	_ZNSaIiED1Ev
	movq	-40(%rbp), %rax
	addq	$88, %rax
	movq	%rax, %rdi
	call	_ZNSt7__cxx119sub_matchIN9__gnu_cxx17__normal_iteratorIPKcNS_12basic_stringIcSt11char_traitsIcESaIcEEEEEEC1Ev
	movq	-40(%rbp), %rax
	movq	$0, 112(%rax)
	movq	-56(%rbp), %rdx
	movq	-48(%rbp), %rcx
	movq	-40(%rbp), %rax
	movq	%rcx, %rsi
	movq	%rax, %rdi
.LEHB92:
	call	_ZNSt7__cxx1120regex_token_iteratorIN9__gnu_cxx17__normal_iteratorIPKcNS_12basic_stringIcSt11char_traitsIcESaIcEEEEEcNS_12regex_traitsIcEEE7_M_initESA_SA_
.LEHE92:
	jmp	.L474
.L472:
	movq	%rax, %rbx
	leaq	-17(%rbp), %rax
	movq	%rax, %rdi
	call	_ZNSaIiED1Ev
	jmp	.L470
.L473:
	movq	%rax, %rbx
	movq	-40(%rbp), %rax
	addq	$64, %rax
	movq	%rax, %rdi
	call	_ZNSt6vectorIiSaIiEED1Ev
.L470:
	movq	-40(%rbp), %rax
	movq	%rax, %rdi
	call	_ZNSt7__cxx1114regex_iteratorIN9__gnu_cxx17__normal_iteratorIPKcNS_12basic_stringIcSt11char_traitsIcESaIcEEEEEcNS_12regex_traitsIcEEED1Ev
	movq	%rbx, %rax
	movq	%rax, %rdi
.LEHB93:
	call	_Unwind_Resume@PLT
.LEHE93:
.L474:
	movq	-8(%rbp), %rbx
	leave
	.cfi_def_cfa 7, 8
	ret
	.cfi_endproc
.LFE4858:
	.section	.gcc_except_table
.LLSDA4858:
	.byte	0xff
	.byte	0xff
	.byte	0x1
	.uleb128 .LLSDACSE4858-.LLSDACSB4858
.LLSDACSB4858:
	.uleb128 .LEHB90-.LFB4858
	.uleb128 .LEHE90-.LEHB90
	.uleb128 0
	.uleb128 0
	.uleb128 .LEHB91-.LFB4858
	.uleb128 .LEHE91-.LEHB91
	.uleb128 .L472-.LFB4858
	.uleb128 0
	.uleb128 .LEHB92-.LFB4858
	.uleb128 .LEHE92-.LEHB92
	.uleb128 .L473-.LFB4858
	.uleb128 0
	.uleb128 .LEHB93-.LFB4858
	.uleb128 .LEHE93-.LEHB93
	.uleb128 0
	.uleb128 0
.LLSDACSE4858:
	.section	.text._ZNSt7__cxx1120regex_token_iteratorIN9__gnu_cxx17__normal_iteratorIPKcNS_12basic_stringIcSt11char_traitsIcESaIcEEEEEcNS_12regex_traitsIcEEEC2ESA_SA_RKNS_11basic_regexIcSC_EEiNSt15regex_constants15match_flag_typeE,"axG",@progbits,_ZNSt7__cxx1120regex_token_iteratorIN9__gnu_cxx17__normal_iteratorIPKcNS_12basic_stringIcSt11char_traitsIcESaIcEEEEEcNS_12regex_traitsIcEEEC5ESA_SA_RKNS_11basic_regexIcSC_EEiNSt15regex_constants15match_flag_typeE,comdat
	.size	_ZNSt7__cxx1120regex_token_iteratorIN9__gnu_cxx17__normal_iteratorIPKcNS_12basic_stringIcSt11char_traitsIcESaIcEEEEEcNS_12regex_traitsIcEEEC2ESA_SA_RKNS_11basic_regexIcSC_EEiNSt15regex_constants15match_flag_typeE, .-_ZNSt7__cxx1120regex_token_iteratorIN9__gnu_cxx17__normal_iteratorIPKcNS_12basic_stringIcSt11char_traitsIcESaIcEEEEEcNS_12regex_traitsIcEEEC2ESA_SA_RKNS_11basic_regexIcSC_EEiNSt15regex_constants15match_flag_typeE
	.weak	_ZNSt7__cxx1120regex_token_iteratorIN9__gnu_cxx17__normal_iteratorIPKcNS_12basic_stringIcSt11char_traitsIcESaIcEEEEEcNS_12regex_traitsIcEEEC1ESA_SA_RKNS_11basic_regexIcSC_EEiNSt15regex_constants15match_flag_typeE
	.set	_ZNSt7__cxx1120regex_token_iteratorIN9__gnu_cxx17__normal_iteratorIPKcNS_12basic_stringIcSt11char_traitsIcESaIcEEEEEcNS_12regex_traitsIcEEEC1ESA_SA_RKNS_11basic_regexIcSC_EEiNSt15regex_constants15match_flag_typeE,_ZNSt7__cxx1120regex_token_iteratorIN9__gnu_cxx17__normal_iteratorIPKcNS_12basic_stringIcSt11char_traitsIcESaIcEEEEEcNS_12regex_traitsIcEEEC2ESA_SA_RKNS_11basic_regexIcSC_EEiNSt15regex_constants15match_flag_typeE
	.section	.text._ZNSt6vectorINSt7__cxx119sub_matchIN9__gnu_cxx17__normal_iteratorIPKcNS0_12basic_stringIcSt11char_traitsIcESaIcEEEEEEESaISC_EED2Ev,"axG",@progbits,_ZNSt6vectorINSt7__cxx119sub_matchIN9__gnu_cxx17__normal_iteratorIPKcNS0_12basic_stringIcSt11char_traitsIcESaIcEEEEEEESaISC_EED5Ev,comdat
	.align 2
	.weak	_ZNSt6vectorINSt7__cxx119sub_matchIN9__gnu_cxx17__normal_iteratorIPKcNS0_12basic_stringIcSt11char_traitsIcESaIcEEEEEEESaISC_EED2Ev
	.type	_ZNSt6vectorINSt7__cxx119sub_matchIN9__gnu_cxx17__normal_iteratorIPKcNS0_12basic_stringIcSt11char_traitsIcESaIcEEEEEEESaISC_EED2Ev, @function
_ZNSt6vectorINSt7__cxx119sub_matchIN9__gnu_cxx17__normal_iteratorIPKcNS0_12basic_stringIcSt11char_traitsIcESaIcEEEEEEESaISC_EED2Ev:
.LFB4861:
	.cfi_startproc
	.cfi_personality 0x9b,DW.ref.__gxx_personality_v0
	.cfi_lsda 0x1b,.LLSDA4861
	pushq	%rbp
	.cfi_def_cfa_offset 16
	.cfi_offset 6, -16
	movq	%rsp, %rbp
	.cfi_def_cfa_register 6
	subq	$16, %rsp
	movq	%rdi, -8(%rbp)
	movq	-8(%rbp), %rax
	movq	%rax, %rdi
	call	_ZNSt12_Vector_baseINSt7__cxx119sub_matchIN9__gnu_cxx17__normal_iteratorIPKcNS0_12basic_stringIcSt11char_traitsIcESaIcEEEEEEESaISC_EE19_M_get_Tp_allocatorEv
	movq	%rax, %rdx
	movq	-8(%rbp), %rax
	movq	8(%rax), %rcx
	movq	-8(%rbp), %rax
	movq	(%rax), %rax
	movq	%rcx, %rsi
	movq	%rax, %rdi
	call	_ZSt8_DestroyIPNSt7__cxx119sub_matchIN9__gnu_cxx17__normal_iteratorIPKcNS0_12basic_stringIcSt11char_traitsIcESaIcEEEEEEESC_EvT_SE_RSaIT0_E
	movq	-8(%rbp), %rax
	movq	%rax, %rdi
	call	_ZNSt12_Vector_baseINSt7__cxx119sub_matchIN9__gnu_cxx17__normal_iteratorIPKcNS0_12basic_stringIcSt11char_traitsIcESaIcEEEEEEESaISC_EED2Ev
	nop
	leave
	.cfi_def_cfa 7, 8
	ret
	.cfi_endproc
.LFE4861:
	.section	.gcc_except_table
.LLSDA4861:
	.byte	0xff
	.byte	0xff
	.byte	0x1
	.uleb128 .LLSDACSE4861-.LLSDACSB4861
.LLSDACSB4861:
.LLSDACSE4861:
	.section	.text._ZNSt6vectorINSt7__cxx119sub_matchIN9__gnu_cxx17__normal_iteratorIPKcNS0_12basic_stringIcSt11char_traitsIcESaIcEEEEEEESaISC_EED2Ev,"axG",@progbits,_ZNSt6vectorINSt7__cxx119sub_matchIN9__gnu_cxx17__normal_iteratorIPKcNS0_12basic_stringIcSt11char_traitsIcESaIcEEEEEEESaISC_EED5Ev,comdat
	.size	_ZNSt6vectorINSt7__cxx119sub_matchIN9__gnu_cxx17__normal_iteratorIPKcNS0_12basic_stringIcSt11char_traitsIcESaIcEEEEEEESaISC_EED2Ev, .-_ZNSt6vectorINSt7__cxx119sub_matchIN9__gnu_cxx17__normal_iteratorIPKcNS0_12basic_stringIcSt11char_traitsIcESaIcEEEEEEESaISC_EED2Ev
	.weak	_ZNSt6vectorINSt7__cxx119sub_matchIN9__gnu_cxx17__normal_iteratorIPKcNS0_12basic_stringIcSt11char_traitsIcESaIcEEEEEEESaISC_EED1Ev
	.set	_ZNSt6vectorINSt7__cxx119sub_matchIN9__gnu_cxx17__normal_iteratorIPKcNS0_12basic_stringIcSt11char_traitsIcESaIcEEEEEEESaISC_EED1Ev,_ZNSt6vectorINSt7__cxx119sub_matchIN9__gnu_cxx17__normal_iteratorIPKcNS0_12basic_stringIcSt11char_traitsIcESaIcEEEEEEESaISC_EED2Ev
	.section	.text._ZNSt6vectorIiSaIiEED2Ev,"axG",@progbits,_ZNSt6vectorIiSaIiEED5Ev,comdat
	.align 2
	.weak	_ZNSt6vectorIiSaIiEED2Ev
	.type	_ZNSt6vectorIiSaIiEED2Ev, @function
_ZNSt6vectorIiSaIiEED2Ev:
.LFB4864:
	.cfi_startproc
	.cfi_personality 0x9b,DW.ref.__gxx_personality_v0
	.cfi_lsda 0x1b,.LLSDA4864
	pushq	%rbp
	.cfi_def_cfa_offset 16
	.cfi_offset 6, -16
	movq	%rsp, %rbp
	.cfi_def_cfa_register 6
	subq	$16, %rsp
	movq	%rdi, -8(%rbp)
	movq	-8(%rbp), %rax
	movq	%rax, %rdi
	call	_ZNSt12_Vector_baseIiSaIiEE19_M_get_Tp_allocatorEv
	movq	%rax, %rdx
	movq	-8(%rbp), %rax
	movq	8(%rax), %rcx
	movq	-8(%rbp), %rax
	movq	(%rax), %rax
	movq	%rcx, %rsi
	movq	%rax, %rdi
	call	_ZSt8_DestroyIPiiEvT_S1_RSaIT0_E
	movq	-8(%rbp), %rax
	movq	%rax, %rdi
	call	_ZNSt12_Vector_baseIiSaIiEED2Ev
	nop
	leave
	.cfi_def_cfa 7, 8
	ret
	.cfi_endproc
.LFE4864:
	.section	.gcc_except_table
.LLSDA4864:
	.byte	0xff
	.byte	0xff
	.byte	0x1
	.uleb128 .LLSDACSE4864-.LLSDACSB4864
.LLSDACSB4864:
.LLSDACSE4864:
	.section	.text._ZNSt6vectorIiSaIiEED2Ev,"axG",@progbits,_ZNSt6vectorIiSaIiEED5Ev,comdat
	.size	_ZNSt6vectorIiSaIiEED2Ev, .-_ZNSt6vectorIiSaIiEED2Ev
	.weak	_ZNSt6vectorIiSaIiEED1Ev
	.set	_ZNSt6vectorIiSaIiEED1Ev,_ZNSt6vectorIiSaIiEED2Ev
	.section	.text._ZNSt7__cxx1114regex_iteratorIN9__gnu_cxx17__normal_iteratorIPKcNS_12basic_stringIcSt11char_traitsIcESaIcEEEEEcNS_12regex_traitsIcEEEC2Ev,"axG",@progbits,_ZNSt7__cxx1114regex_iteratorIN9__gnu_cxx17__normal_iteratorIPKcNS_12basic_stringIcSt11char_traitsIcESaIcEEEEEcNS_12regex_traitsIcEEEC5Ev,comdat
	.align 2
	.weak	_ZNSt7__cxx1114regex_iteratorIN9__gnu_cxx17__normal_iteratorIPKcNS_12basic_stringIcSt11char_traitsIcESaIcEEEEEcNS_12regex_traitsIcEEEC2Ev
	.type	_ZNSt7__cxx1114regex_iteratorIN9__gnu_cxx17__normal_iteratorIPKcNS_12basic_stringIcSt11char_traitsIcESaIcEEEEEcNS_12regex_traitsIcEEEC2Ev, @function
_ZNSt7__cxx1114regex_iteratorIN9__gnu_cxx17__normal_iteratorIPKcNS_12basic_stringIcSt11char_traitsIcESaIcEEEEEcNS_12regex_traitsIcEEEC2Ev:
.LFB4868:
	.cfi_startproc
	pushq	%rbp
	.cfi_def_cfa_offset 16
	.cfi_offset 6, -16
	movq	%rsp, %rbp
	.cfi_def_cfa_register 6
	subq	$16, %rsp
	movq	%rdi, -8(%rbp)
	movq	-8(%rbp), %rax
	movq	%rax, %rdi
	call	_ZN9__gnu_cxx17__normal_iteratorIPKcNSt7__cxx1112basic_stringIcSt11char_traitsIcESaIcEEEEC1Ev
	movq	-8(%rbp), %rax
	addq	$8, %rax
	movq	%rax, %rdi
	call	_ZN9__gnu_cxx17__normal_iteratorIPKcNSt7__cxx1112basic_stringIcSt11char_traitsIcESaIcEEEEC1Ev
	movq	-8(%rbp), %rax
	movq	$0, 16(%rax)
	movq	-8(%rbp), %rax
	movl	$0, 24(%rax)
	movq	-8(%rbp), %rax
	addq	$32, %rax
	movq	%rax, %rdi
	call	_ZNSt7__cxx1113match_resultsIN9__gnu_cxx17__normal_iteratorIPKcNS_12basic_stringIcSt11char_traitsIcESaIcEEEEESaINS_9sub_matchISA_EEEEC1Ev
	nop
	leave
	.cfi_def_cfa 7, 8
	ret
	.cfi_endproc
.LFE4868:
	.size	_ZNSt7__cxx1114regex_iteratorIN9__gnu_cxx17__normal_iteratorIPKcNS_12basic_stringIcSt11char_traitsIcESaIcEEEEEcNS_12regex_traitsIcEEEC2Ev, .-_ZNSt7__cxx1114regex_iteratorIN9__gnu_cxx17__normal_iteratorIPKcNS_12basic_stringIcSt11char_traitsIcESaIcEEEEEcNS_12regex_traitsIcEEEC2Ev
	.weak	_ZNSt7__cxx1114regex_iteratorIN9__gnu_cxx17__normal_iteratorIPKcNS_12basic_stringIcSt11char_traitsIcESaIcEEEEEcNS_12regex_traitsIcEEEC1Ev
	.set	_ZNSt7__cxx1114regex_iteratorIN9__gnu_cxx17__normal_iteratorIPKcNS_12basic_stringIcSt11char_traitsIcESaIcEEEEEcNS_12regex_traitsIcEEEC1Ev,_ZNSt7__cxx1114regex_iteratorIN9__gnu_cxx17__normal_iteratorIPKcNS_12basic_stringIcSt11char_traitsIcESaIcEEEEEcNS_12regex_traitsIcEEEC2Ev
	.section	.text._ZNSt12_Vector_baseIiSaIiEE12_Vector_implD2Ev,"axG",@progbits,_ZNSt12_Vector_baseIiSaIiEE12_Vector_implD5Ev,comdat
	.align 2
	.weak	_ZNSt12_Vector_baseIiSaIiEE12_Vector_implD2Ev
	.type	_ZNSt12_Vector_baseIiSaIiEE12_Vector_implD2Ev, @function
_ZNSt12_Vector_baseIiSaIiEE12_Vector_implD2Ev:
.LFB4874:
	.cfi_startproc
	pushq	%rbp
	.cfi_def_cfa_offset 16
	.cfi_offset 6, -16
	movq	%rsp, %rbp
	.cfi_def_cfa_register 6
	subq	$16, %rsp
	movq	%rdi, -8(%rbp)
	movq	-8(%rbp), %rax
	movq	%rax, %rdi
	call	_ZNSaIiED2Ev
	nop
	leave
	.cfi_def_cfa 7, 8
	ret
	.cfi_endproc
.LFE4874:
	.size	_ZNSt12_Vector_baseIiSaIiEE12_Vector_implD2Ev, .-_ZNSt12_Vector_baseIiSaIiEE12_Vector_implD2Ev
	.weak	_ZNSt12_Vector_baseIiSaIiEE12_Vector_implD1Ev
	.set	_ZNSt12_Vector_baseIiSaIiEE12_Vector_implD1Ev,_ZNSt12_Vector_baseIiSaIiEE12_Vector_implD2Ev
	.section	.text._ZNSt12_Vector_baseIiSaIiEEC2Ev,"axG",@progbits,_ZNSt12_Vector_baseIiSaIiEEC5Ev,comdat
	.align 2
	.weak	_ZNSt12_Vector_baseIiSaIiEEC2Ev
	.type	_ZNSt12_Vector_baseIiSaIiEEC2Ev, @function
_ZNSt12_Vector_baseIiSaIiEEC2Ev:
.LFB4876:
	.cfi_startproc
	pushq	%rbp
	.cfi_def_cfa_offset 16
	.cfi_offset 6, -16
	movq	%rsp, %rbp
	.cfi_def_cfa_register 6
	subq	$16, %rsp
	movq	%rdi, -8(%rbp)
	movq	-8(%rbp), %rax
	movq	%rax, %rdi
	call	_ZNSt12_Vector_baseIiSaIiEE12_Vector_implC1Ev
	nop
	leave
	.cfi_def_cfa 7, 8
	ret
	.cfi_endproc
.LFE4876:
	.size	_ZNSt12_Vector_baseIiSaIiEEC2Ev, .-_ZNSt12_Vector_baseIiSaIiEEC2Ev
	.weak	_ZNSt12_Vector_baseIiSaIiEEC1Ev
	.set	_ZNSt12_Vector_baseIiSaIiEEC1Ev,_ZNSt12_Vector_baseIiSaIiEEC2Ev
	.section	.text._ZNSt6vectorIiSaIiEEC2Ev,"axG",@progbits,_ZNSt6vectorIiSaIiEEC5Ev,comdat
	.align 2
	.weak	_ZNSt6vectorIiSaIiEEC2Ev
	.type	_ZNSt6vectorIiSaIiEEC2Ev, @function
_ZNSt6vectorIiSaIiEEC2Ev:
.LFB4878:
	.cfi_startproc
	pushq	%rbp
	.cfi_def_cfa_offset 16
	.cfi_offset 6, -16
	movq	%rsp, %rbp
	.cfi_def_cfa_register 6
	subq	$16, %rsp
	movq	%rdi, -8(%rbp)
	movq	-8(%rbp), %rax
	movq	%rax, %rdi
	call	_ZNSt12_Vector_baseIiSaIiEEC2Ev
	nop
	leave
	.cfi_def_cfa 7, 8
	ret
	.cfi_endproc
.LFE4878:
	.size	_ZNSt6vectorIiSaIiEEC2Ev, .-_ZNSt6vectorIiSaIiEEC2Ev
	.weak	_ZNSt6vectorIiSaIiEEC1Ev
	.set	_ZNSt6vectorIiSaIiEEC1Ev,_ZNSt6vectorIiSaIiEEC2Ev
	.section	.text._ZNSt7__cxx1120regex_token_iteratorIN9__gnu_cxx17__normal_iteratorIPKcNS_12basic_stringIcSt11char_traitsIcESaIcEEEEEcNS_12regex_traitsIcEEEC2Ev,"axG",@progbits,_ZNSt7__cxx1120regex_token_iteratorIN9__gnu_cxx17__normal_iteratorIPKcNS_12basic_stringIcSt11char_traitsIcESaIcEEEEEcNS_12regex_traitsIcEEEC5Ev,comdat
	.align 2
	.weak	_ZNSt7__cxx1120regex_token_iteratorIN9__gnu_cxx17__normal_iteratorIPKcNS_12basic_stringIcSt11char_traitsIcESaIcEEEEEcNS_12regex_traitsIcEEEC2Ev
	.type	_ZNSt7__cxx1120regex_token_iteratorIN9__gnu_cxx17__normal_iteratorIPKcNS_12basic_stringIcSt11char_traitsIcESaIcEEEEEcNS_12regex_traitsIcEEEC2Ev, @function
_ZNSt7__cxx1120regex_token_iteratorIN9__gnu_cxx17__normal_iteratorIPKcNS_12basic_stringIcSt11char_traitsIcESaIcEEEEEcNS_12regex_traitsIcEEEC2Ev:
.LFB4880:
	.cfi_startproc
	pushq	%rbp
	.cfi_def_cfa_offset 16
	.cfi_offset 6, -16
	movq	%rsp, %rbp
	.cfi_def_cfa_register 6
	subq	$16, %rsp
	movq	%rdi, -8(%rbp)
	movq	-8(%rbp), %rax
	pxor	%xmm0, %xmm0
	movups	%xmm0, (%rax)
	movups	%xmm0, 16(%rax)
	movups	%xmm0, 32(%rax)
	movups	%xmm0, 48(%rax)
	movq	-8(%rbp), %rax
	movq	%rax, %rdi
	call	_ZNSt7__cxx1114regex_iteratorIN9__gnu_cxx17__normal_iteratorIPKcNS_12basic_stringIcSt11char_traitsIcESaIcEEEEEcNS_12regex_traitsIcEEEC1Ev
	movq	-8(%rbp), %rax
	pxor	%xmm0, %xmm0
	movups	%xmm0, 64(%rax)
	movq	%xmm0, 80(%rax)
	movq	-8(%rbp), %rax
	addq	$64, %rax
	movq	%rax, %rdi
	call	_ZNSt6vectorIiSaIiEEC1Ev
	movq	-8(%rbp), %rax
	addq	$88, %rax
	movq	%rax, %rdi
	call	_ZNSt7__cxx119sub_matchIN9__gnu_cxx17__normal_iteratorIPKcNS_12basic_stringIcSt11char_traitsIcESaIcEEEEEEC1Ev
	movq	-8(%rbp), %rax
	movq	$0, 112(%rax)
	movq	-8(%rbp), %rax
	movq	$0, 120(%rax)
	movq	-8(%rbp), %rax
	movb	$0, 128(%rax)
	nop
	leave
	.cfi_def_cfa 7, 8
	ret
	.cfi_endproc
.LFE4880:
	.size	_ZNSt7__cxx1120regex_token_iteratorIN9__gnu_cxx17__normal_iteratorIPKcNS_12basic_stringIcSt11char_traitsIcESaIcEEEEEcNS_12regex_traitsIcEEEC2Ev, .-_ZNSt7__cxx1120regex_token_iteratorIN9__gnu_cxx17__normal_iteratorIPKcNS_12basic_stringIcSt11char_traitsIcESaIcEEEEEcNS_12regex_traitsIcEEEC2Ev
	.weak	_ZNSt7__cxx1120regex_token_iteratorIN9__gnu_cxx17__normal_iteratorIPKcNS_12basic_stringIcSt11char_traitsIcESaIcEEEEEcNS_12regex_traitsIcEEEC1Ev
	.set	_ZNSt7__cxx1120regex_token_iteratorIN9__gnu_cxx17__normal_iteratorIPKcNS_12basic_stringIcSt11char_traitsIcESaIcEEEEEcNS_12regex_traitsIcEEEC1Ev,_ZNSt7__cxx1120regex_token_iteratorIN9__gnu_cxx17__normal_iteratorIPKcNS_12basic_stringIcSt11char_traitsIcESaIcEEEEEcNS_12regex_traitsIcEEEC2Ev
	.section	.text._ZNKSt7__cxx1120regex_token_iteratorIN9__gnu_cxx17__normal_iteratorIPKcNS_12basic_stringIcSt11char_traitsIcESaIcEEEEEcNS_12regex_traitsIcEEEneERKSD_,"axG",@progbits,_ZNKSt7__cxx1120regex_token_iteratorIN9__gnu_cxx17__normal_iteratorIPKcNS_12basic_stringIcSt11char_traitsIcESaIcEEEEEcNS_12regex_traitsIcEEEneERKSD_,comdat
	.align 2
	.weak	_ZNKSt7__cxx1120regex_token_iteratorIN9__gnu_cxx17__normal_iteratorIPKcNS_12basic_stringIcSt11char_traitsIcESaIcEEEEEcNS_12regex_traitsIcEEEneERKSD_
	.type	_ZNKSt7__cxx1120regex_token_iteratorIN9__gnu_cxx17__normal_iteratorIPKcNS_12basic_stringIcSt11char_traitsIcESaIcEEEEEcNS_12regex_traitsIcEEEneERKSD_, @function
_ZNKSt7__cxx1120regex_token_iteratorIN9__gnu_cxx17__normal_iteratorIPKcNS_12basic_stringIcSt11char_traitsIcESaIcEEEEEcNS_12regex_traitsIcEEEneERKSD_:
.LFB4882:
	.cfi_startproc
	pushq	%rbp
	.cfi_def_cfa_offset 16
	.cfi_offset 6, -16
	movq	%rsp, %rbp
	.cfi_def_cfa_register 6
	subq	$16, %rsp
	movq	%rdi, -8(%rbp)
	movq	%rsi, -16(%rbp)
	movq	-16(%rbp), %rdx
	movq	-8(%rbp), %rax
	movq	%rdx, %rsi
	movq	%rax, %rdi
	call	_ZNKSt7__cxx1120regex_token_iteratorIN9__gnu_cxx17__normal_iteratorIPKcNS_12basic_stringIcSt11char_traitsIcESaIcEEEEEcNS_12regex_traitsIcEEEeqERKSD_
	xorl	$1, %eax
	leave
	.cfi_def_cfa 7, 8
	ret
	.cfi_endproc
.LFE4882:
	.size	_ZNKSt7__cxx1120regex_token_iteratorIN9__gnu_cxx17__normal_iteratorIPKcNS_12basic_stringIcSt11char_traitsIcESaIcEEEEEcNS_12regex_traitsIcEEEneERKSD_, .-_ZNKSt7__cxx1120regex_token_iteratorIN9__gnu_cxx17__normal_iteratorIPKcNS_12basic_stringIcSt11char_traitsIcESaIcEEEEEcNS_12regex_traitsIcEEEneERKSD_
	.section	.text._ZNSt7__cxx1120regex_token_iteratorIN9__gnu_cxx17__normal_iteratorIPKcNS_12basic_stringIcSt11char_traitsIcESaIcEEEEEcNS_12regex_traitsIcEEEppEi,"axG",@progbits,_ZNSt7__cxx1120regex_token_iteratorIN9__gnu_cxx17__normal_iteratorIPKcNS_12basic_stringIcSt11char_traitsIcESaIcEEEEEcNS_12regex_traitsIcEEEppEi,comdat
	.align 2
	.weak	_ZNSt7__cxx1120regex_token_iteratorIN9__gnu_cxx17__normal_iteratorIPKcNS_12basic_stringIcSt11char_traitsIcESaIcEEEEEcNS_12regex_traitsIcEEEppEi
	.type	_ZNSt7__cxx1120regex_token_iteratorIN9__gnu_cxx17__normal_iteratorIPKcNS_12basic_stringIcSt11char_traitsIcESaIcEEEEEcNS_12regex_traitsIcEEEppEi, @function
_ZNSt7__cxx1120regex_token_iteratorIN9__gnu_cxx17__normal_iteratorIPKcNS_12basic_stringIcSt11char_traitsIcESaIcEEEEEcNS_12regex_traitsIcEEEppEi:
.LFB4883:
	.cfi_startproc
	.cfi_personality 0x9b,DW.ref.__gxx_personality_v0
	.cfi_lsda 0x1b,.LLSDA4883
	pushq	%rbp
	.cfi_def_cfa_offset 16
	.cfi_offset 6, -16
	movq	%rsp, %rbp
	.cfi_def_cfa_register 6
	pushq	%rbx
	subq	$40, %rsp
	.cfi_offset 3, -24
	movq	%rdi, -24(%rbp)
	movq	%rsi, -32(%rbp)
	movl	%edx, -36(%rbp)
	movq	-32(%rbp), %rdx
	movq	-24(%rbp), %rax
	movq	%rdx, %rsi
	movq	%rax, %rdi
.LEHB94:
	call	_ZNSt7__cxx1120regex_token_iteratorIN9__gnu_cxx17__normal_iteratorIPKcNS_12basic_stringIcSt11char_traitsIcESaIcEEEEEcNS_12regex_traitsIcEEEC1ERKSD_
.LEHE94:
	movq	-32(%rbp), %rax
	movq	%rax, %rdi
.LEHB95:
	call	_ZNSt7__cxx1120regex_token_iteratorIN9__gnu_cxx17__normal_iteratorIPKcNS_12basic_stringIcSt11char_traitsIcESaIcEEEEEcNS_12regex_traitsIcEEEppEv
.LEHE95:
	jmp	.L488
.L487:
	movq	%rax, %rbx
	movq	-24(%rbp), %rax
	movq	%rax, %rdi
	call	_ZNSt7__cxx1120regex_token_iteratorIN9__gnu_cxx17__normal_iteratorIPKcNS_12basic_stringIcSt11char_traitsIcESaIcEEEEEcNS_12regex_traitsIcEEED1Ev
	movq	%rbx, %rax
	movq	%rax, %rdi
.LEHB96:
	call	_Unwind_Resume@PLT
.LEHE96:
.L488:
	movq	-24(%rbp), %rax
	movq	-8(%rbp), %rbx
	leave
	.cfi_def_cfa 7, 8
	ret
	.cfi_endproc
.LFE4883:
	.section	.gcc_except_table
.LLSDA4883:
	.byte	0xff
	.byte	0xff
	.byte	0x1
	.uleb128 .LLSDACSE4883-.LLSDACSB4883
.LLSDACSB4883:
	.uleb128 .LEHB94-.LFB4883
	.uleb128 .LEHE94-.LEHB94
	.uleb128 0
	.uleb128 0
	.uleb128 .LEHB95-.LFB4883
	.uleb128 .LEHE95-.LEHB95
	.uleb128 .L487-.LFB4883
	.uleb128 0
	.uleb128 .LEHB96-.LFB4883
	.uleb128 .LEHE96-.LEHB96
	.uleb128 0
	.uleb128 0
.LLSDACSE4883:
	.section	.text._ZNSt7__cxx1120regex_token_iteratorIN9__gnu_cxx17__normal_iteratorIPKcNS_12basic_stringIcSt11char_traitsIcESaIcEEEEEcNS_12regex_traitsIcEEEppEi,"axG",@progbits,_ZNSt7__cxx1120regex_token_iteratorIN9__gnu_cxx17__normal_iteratorIPKcNS_12basic_stringIcSt11char_traitsIcESaIcEEEEEcNS_12regex_traitsIcEEEppEi,comdat
	.size	_ZNSt7__cxx1120regex_token_iteratorIN9__gnu_cxx17__normal_iteratorIPKcNS_12basic_stringIcSt11char_traitsIcESaIcEEEEEcNS_12regex_traitsIcEEEppEi, .-_ZNSt7__cxx1120regex_token_iteratorIN9__gnu_cxx17__normal_iteratorIPKcNS_12basic_stringIcSt11char_traitsIcESaIcEEEEEcNS_12regex_traitsIcEEEppEi
	.section	.text._ZNKSt7__cxx1120regex_token_iteratorIN9__gnu_cxx17__normal_iteratorIPKcNS_12basic_stringIcSt11char_traitsIcESaIcEEEEEcNS_12regex_traitsIcEEEdeEv,"axG",@progbits,_ZNKSt7__cxx1120regex_token_iteratorIN9__gnu_cxx17__normal_iteratorIPKcNS_12basic_stringIcSt11char_traitsIcESaIcEEEEEcNS_12regex_traitsIcEEEdeEv,comdat
	.align 2
	.weak	_ZNKSt7__cxx1120regex_token_iteratorIN9__gnu_cxx17__normal_iteratorIPKcNS_12basic_stringIcSt11char_traitsIcESaIcEEEEEcNS_12regex_traitsIcEEEdeEv
	.type	_ZNKSt7__cxx1120regex_token_iteratorIN9__gnu_cxx17__normal_iteratorIPKcNS_12basic_stringIcSt11char_traitsIcESaIcEEEEEcNS_12regex_traitsIcEEEdeEv, @function
_ZNKSt7__cxx1120regex_token_iteratorIN9__gnu_cxx17__normal_iteratorIPKcNS_12basic_stringIcSt11char_traitsIcESaIcEEEEEcNS_12regex_traitsIcEEEdeEv:
.LFB4884:
	.cfi_startproc
	pushq	%rbp
	.cfi_def_cfa_offset 16
	.cfi_offset 6, -16
	movq	%rsp, %rbp
	.cfi_def_cfa_register 6
	movq	%rdi, -8(%rbp)
	movq	-8(%rbp), %rax
	movq	120(%rax), %rax
	popq	%rbp
	.cfi_def_cfa 7, 8
	ret
	.cfi_endproc
.LFE4884:
	.size	_ZNKSt7__cxx1120regex_token_iteratorIN9__gnu_cxx17__normal_iteratorIPKcNS_12basic_stringIcSt11char_traitsIcESaIcEEEEEcNS_12regex_traitsIcEEEdeEv, .-_ZNKSt7__cxx1120regex_token_iteratorIN9__gnu_cxx17__normal_iteratorIPKcNS_12basic_stringIcSt11char_traitsIcESaIcEEEEEcNS_12regex_traitsIcEEEdeEv
	.section	.text._ZNKSt7__cxx119sub_matchIN9__gnu_cxx17__normal_iteratorIPKcNS_12basic_stringIcSt11char_traitsIcESaIcEEEEEEcvS9_Ev,"axG",@progbits,_ZNKSt7__cxx119sub_matchIN9__gnu_cxx17__normal_iteratorIPKcNS_12basic_stringIcSt11char_traitsIcESaIcEEEEEEcvS9_Ev,comdat
	.align 2
	.weak	_ZNKSt7__cxx119sub_matchIN9__gnu_cxx17__normal_iteratorIPKcNS_12basic_stringIcSt11char_traitsIcESaIcEEEEEEcvS9_Ev
	.type	_ZNKSt7__cxx119sub_matchIN9__gnu_cxx17__normal_iteratorIPKcNS_12basic_stringIcSt11char_traitsIcESaIcEEEEEEcvS9_Ev, @function
_ZNKSt7__cxx119sub_matchIN9__gnu_cxx17__normal_iteratorIPKcNS_12basic_stringIcSt11char_traitsIcESaIcEEEEEEcvS9_Ev:
.LFB4885:
	.cfi_startproc
	pushq	%rbp
	.cfi_def_cfa_offset 16
	.cfi_offset 6, -16
	movq	%rsp, %rbp
	.cfi_def_cfa_register 6
	subq	$16, %rsp
	movq	%rdi, -8(%rbp)
	movq	%rsi, -16(%rbp)
	movq	-8(%rbp), %rax
	movq	-16(%rbp), %rdx
	movq	%rdx, %rsi
	movq	%rax, %rdi
	call	_ZNKSt7__cxx119sub_matchIN9__gnu_cxx17__normal_iteratorIPKcNS_12basic_stringIcSt11char_traitsIcESaIcEEEEEE3strEv
	movq	-8(%rbp), %rax
	leave
	.cfi_def_cfa 7, 8
	ret
	.cfi_endproc
.LFE4885:
	.size	_ZNKSt7__cxx119sub_matchIN9__gnu_cxx17__normal_iteratorIPKcNS_12basic_stringIcSt11char_traitsIcESaIcEEEEEEcvS9_Ev, .-_ZNKSt7__cxx119sub_matchIN9__gnu_cxx17__normal_iteratorIPKcNS_12basic_stringIcSt11char_traitsIcESaIcEEEEEEcvS9_Ev
	.section	.text._ZNSt12_Vector_baseINSt7__cxx1112basic_stringIcSt11char_traitsIcESaIcEEESaIS5_EE12_Vector_implC2EOS8_,"axG",@progbits,_ZNSt12_Vector_baseINSt7__cxx1112basic_stringIcSt11char_traitsIcESaIcEEESaIS5_EE12_Vector_implC5EOS8_,comdat
	.align 2
	.weak	_ZNSt12_Vector_baseINSt7__cxx1112basic_stringIcSt11char_traitsIcESaIcEEESaIS5_EE12_Vector_implC2EOS8_
	.type	_ZNSt12_Vector_baseINSt7__cxx1112basic_stringIcSt11char_traitsIcESaIcEEESaIS5_EE12_Vector_implC2EOS8_, @function
_ZNSt12_Vector_baseINSt7__cxx1112basic_stringIcSt11char_traitsIcESaIcEEESaIS5_EE12_Vector_implC2EOS8_:
.LFB4887:
	.cfi_startproc
	pushq	%rbp
	.cfi_def_cfa_offset 16
	.cfi_offset 6, -16
	movq	%rsp, %rbp
	.cfi_def_cfa_register 6
	pushq	%rbx
	subq	$24, %rsp
	.cfi_offset 3, -24
	movq	%rdi, -24(%rbp)
	movq	%rsi, -32(%rbp)
	movq	-32(%rbp), %rax
	movq	%rax, %rdi
	call	_ZSt4moveIRNSt12_Vector_baseINSt7__cxx1112basic_stringIcSt11char_traitsIcESaIcEEESaIS6_EE12_Vector_implEEONSt16remove_referenceIT_E4typeEOSC_
	movq	%rax, %rdx
	movq	-24(%rbp), %rax
	movq	%rdx, %rsi
	movq	%rax, %rdi
	call	_ZNSaINSt7__cxx1112basic_stringIcSt11char_traitsIcESaIcEEEEC2ERKS5_
	movq	-24(%rbp), %rbx
	movq	-32(%rbp), %rax
	movq	%rax, %rdi
	call	_ZSt4moveIRNSt12_Vector_baseINSt7__cxx1112basic_stringIcSt11char_traitsIcESaIcEEESaIS6_EE12_Vector_implEEONSt16remove_referenceIT_E4typeEOSC_
	movq	%rax, %rsi
	movq	%rbx, %rdi
	call	_ZNSt12_Vector_baseINSt7__cxx1112basic_stringIcSt11char_traitsIcESaIcEEESaIS5_EE17_Vector_impl_dataC2EOS8_
	nop
	movq	-8(%rbp), %rbx
	leave
	.cfi_def_cfa 7, 8
	ret
	.cfi_endproc
.LFE4887:
	.size	_ZNSt12_Vector_baseINSt7__cxx1112basic_stringIcSt11char_traitsIcESaIcEEESaIS5_EE12_Vector_implC2EOS8_, .-_ZNSt12_Vector_baseINSt7__cxx1112basic_stringIcSt11char_traitsIcESaIcEEESaIS5_EE12_Vector_implC2EOS8_
	.weak	_ZNSt12_Vector_baseINSt7__cxx1112basic_stringIcSt11char_traitsIcESaIcEEESaIS5_EE12_Vector_implC1EOS8_
	.set	_ZNSt12_Vector_baseINSt7__cxx1112basic_stringIcSt11char_traitsIcESaIcEEESaIS5_EE12_Vector_implC1EOS8_,_ZNSt12_Vector_baseINSt7__cxx1112basic_stringIcSt11char_traitsIcESaIcEEESaIS5_EE12_Vector_implC2EOS8_
	.section	.rodata
	.align 8
.LC33:
	.string	"basic_string: construction from null is not valid"
	.section	.text._ZNSt7__cxx1112basic_stringIcSt11char_traitsIcESaIcEEC2IS3_EEPKcRKS3_,"axG",@progbits,_ZNSt7__cxx1112basic_stringIcSt11char_traitsIcESaIcEEC5IS3_EEPKcRKS3_,comdat
	.align 2
	.weak	_ZNSt7__cxx1112basic_stringIcSt11char_traitsIcESaIcEEC2IS3_EEPKcRKS3_
	.type	_ZNSt7__cxx1112basic_stringIcSt11char_traitsIcESaIcEEC2IS3_EEPKcRKS3_, @function
_ZNSt7__cxx1112basic_stringIcSt11char_traitsIcESaIcEEC2IS3_EEPKcRKS3_:
.LFB4890:
	.cfi_startproc
	.cfi_personality 0x9b,DW.ref.__gxx_personality_v0
	.cfi_lsda 0x1b,.LLSDA4890
	pushq	%rbp
	.cfi_def_cfa_offset 16
	.cfi_offset 6, -16
	movq	%rsp, %rbp
	.cfi_def_cfa_register 6
	pushq	%rbx
	subq	$56, %rsp
	.cfi_offset 3, -24
	movq	%rdi, -40(%rbp)
	movq	%rsi, -48(%rbp)
	movq	%rdx, -56(%rbp)
	movq	-40(%rbp), %rbx
	movq	-40(%rbp), %rax
	movq	%rax, %rdi
	call	_ZNSt7__cxx1112basic_stringIcSt11char_traitsIcESaIcEE13_M_local_dataEv@PLT
	movq	%rax, %rcx
	movq	-56(%rbp), %rax
	movq	%rax, %rdx
	movq	%rcx, %rsi
	movq	%rbx, %rdi
	call	_ZNSt7__cxx1112basic_stringIcSt11char_traitsIcESaIcEE12_Alloc_hiderC1EPcRKS3_@PLT
	cmpq	$0, -48(%rbp)
	jne	.L495
	leaq	.LC33(%rip), %rax
	movq	%rax, %rdi
.LEHB97:
	call	_ZSt19__throw_logic_errorPKc@PLT
.L495:
	movq	-48(%rbp), %rax
	movq	%rax, %rdi
	call	_ZNSt11char_traitsIcE6lengthEPKc
	movq	-48(%rbp), %rdx
	addq	%rdx, %rax
	movq	%rax, -24(%rbp)
	movq	-24(%rbp), %rdx
	movq	-48(%rbp), %rcx
	movq	-40(%rbp), %rax
	movq	%rcx, %rsi
	movq	%rax, %rdi
	call	_ZNSt7__cxx1112basic_stringIcSt11char_traitsIcESaIcEE12_M_constructIPKcEEvT_S8_St20forward_iterator_tag
.LEHE97:
	jmp	.L498
.L497:
	movq	%rax, %rbx
	movq	-40(%rbp), %rax
	movq	%rax, %rdi
	call	_ZNSt7__cxx1112basic_stringIcSt11char_traitsIcESaIcEE12_Alloc_hiderD1Ev
	movq	%rbx, %rax
	movq	%rax, %rdi
.LEHB98:
	call	_Unwind_Resume@PLT
.LEHE98:
.L498:
	movq	-8(%rbp), %rbx
	leave
	.cfi_def_cfa 7, 8
	ret
	.cfi_endproc
.LFE4890:
	.section	.gcc_except_table
.LLSDA4890:
	.byte	0xff
	.byte	0xff
	.byte	0x1
	.uleb128 .LLSDACSE4890-.LLSDACSB4890
.LLSDACSB4890:
	.uleb128 .LEHB97-.LFB4890
	.uleb128 .LEHE97-.LEHB97
	.uleb128 .L497-.LFB4890
	.uleb128 0
	.uleb128 .LEHB98-.LFB4890
	.uleb128 .LEHE98-.LEHB98
	.uleb128 0
	.uleb128 0
.LLSDACSE4890:
	.section	.text._ZNSt7__cxx1112basic_stringIcSt11char_traitsIcESaIcEEC2IS3_EEPKcRKS3_,"axG",@progbits,_ZNSt7__cxx1112basic_stringIcSt11char_traitsIcESaIcEEC5IS3_EEPKcRKS3_,comdat
	.size	_ZNSt7__cxx1112basic_stringIcSt11char_traitsIcESaIcEEC2IS3_EEPKcRKS3_, .-_ZNSt7__cxx1112basic_stringIcSt11char_traitsIcESaIcEEC2IS3_EEPKcRKS3_
	.weak	_ZNSt7__cxx1112basic_stringIcSt11char_traitsIcESaIcEEC1IS3_EEPKcRKS3_
	.set	_ZNSt7__cxx1112basic_stringIcSt11char_traitsIcESaIcEEC1IS3_EEPKcRKS3_,_ZNSt7__cxx1112basic_stringIcSt11char_traitsIcESaIcEEC2IS3_EEPKcRKS3_
	.section	.text._ZSt13regex_replaceINSt7__cxx1112regex_traitsIcEEcSt11char_traitsIcESaIcES4_S5_ENS0_12basic_stringIT0_T1_T2_EERKSA_RKNS0_11basic_regexIS7_T_EERKNS6_IS7_T3_T4_EENSt15regex_constants15match_flag_typeE,"axG",@progbits,_ZSt13regex_replaceINSt7__cxx1112regex_traitsIcEEcSt11char_traitsIcESaIcES4_S5_ENS0_12basic_stringIT0_T1_T2_EERKSA_RKNS0_11basic_regexIS7_T_EERKNS6_IS7_T3_T4_EENSt15regex_constants15match_flag_typeE,comdat
	.weak	_ZSt13regex_replaceINSt7__cxx1112regex_traitsIcEEcSt11char_traitsIcESaIcES4_S5_ENS0_12basic_stringIT0_T1_T2_EERKSA_RKNS0_11basic_regexIS7_T_EERKNS6_IS7_T3_T4_EENSt15regex_constants15match_flag_typeE
	.type	_ZSt13regex_replaceINSt7__cxx1112regex_traitsIcEEcSt11char_traitsIcESaIcES4_S5_ENS0_12basic_stringIT0_T1_T2_EERKSA_RKNS0_11basic_regexIS7_T_EERKNS6_IS7_T3_T4_EENSt15regex_constants15match_flag_typeE, @function
_ZSt13regex_replaceINSt7__cxx1112regex_traitsIcEEcSt11char_traitsIcESaIcES4_S5_ENS0_12basic_stringIT0_T1_T2_EERKSA_RKNS0_11basic_regexIS7_T_EERKNS6_IS7_T3_T4_EENSt15regex_constants15match_flag_typeE:
.LFB4896:
	.cfi_startproc
	.cfi_personality 0x9b,DW.ref.__gxx_personality_v0
	.cfi_lsda 0x1b,.LLSDA4896
	pushq	%rbp
	.cfi_def_cfa_offset 16
	.cfi_offset 6, -16
	movq	%rsp, %rbp
	.cfi_def_cfa_register 6
	pushq	%r12
	pushq	%rbx
	subq	$48, %rsp
	.cfi_offset 12, -24
	.cfi_offset 3, -32
	movq	%rdi, -24(%rbp)
	movq	%rsi, -32(%rbp)
	movq	%rdx, -40(%rbp)
	movq	%rcx, -48(%rbp)
	movl	%r8d, -52(%rbp)
	movq	-24(%rbp), %rax
	movq	%rax, %rdi
	call	_ZNSt7__cxx1112basic_stringIcSt11char_traitsIcESaIcEEC1Ev@PLT
	movq	-32(%rbp), %rax
	movq	%rax, %rdi
	call	_ZNKSt7__cxx1112basic_stringIcSt11char_traitsIcESaIcEE3endEv@PLT
	movq	%rax, %r12
	movq	-32(%rbp), %rax
	movq	%rax, %rdi
	call	_ZNKSt7__cxx1112basic_stringIcSt11char_traitsIcESaIcEE5beginEv@PLT
	movq	%rax, %rbx
	movq	-24(%rbp), %rax
	movq	%rax, %rdi
.LEHB99:
	call	_ZSt13back_inserterINSt7__cxx1112basic_stringIcSt11char_traitsIcESaIcEEEESt20back_insert_iteratorIT_ERS7_
	movq	%rax, %rdi
	movl	-52(%rbp), %ecx
	movq	-48(%rbp), %rdx
	movq	-40(%rbp), %rax
	movl	%ecx, %r9d
	movq	%rdx, %r8
	movq	%rax, %rcx
	movq	%r12, %rdx
	movq	%rbx, %rsi
	call	_ZSt13regex_replaceISt20back_insert_iteratorINSt7__cxx1112basic_stringIcSt11char_traitsIcESaIcEEEEN9__gnu_cxx17__normal_iteratorIPKcS6_EENS1_12regex_traitsIcEEcS4_S5_ET_SF_T0_SG_RKNS1_11basic_regexIT2_T1_EERKNS2_ISI_T3_T4_EENSt15regex_constants15match_flag_typeE
.LEHE99:
	jmp	.L503
.L502:
	movq	%rax, %rbx
	movq	-24(%rbp), %rax
	movq	%rax, %rdi
	call	_ZNSt7__cxx1112basic_stringIcSt11char_traitsIcESaIcEED1Ev@PLT
	movq	%rbx, %rax
	movq	%rax, %rdi
.LEHB100:
	call	_Unwind_Resume@PLT
.LEHE100:
.L503:
	movq	-24(%rbp), %rax
	addq	$48, %rsp
	popq	%rbx
	popq	%r12
	popq	%rbp
	.cfi_def_cfa 7, 8
	ret
	.cfi_endproc
.LFE4896:
	.section	.gcc_except_table
.LLSDA4896:
	.byte	0xff
	.byte	0xff
	.byte	0x1
	.uleb128 .LLSDACSE4896-.LLSDACSB4896
.LLSDACSB4896:
	.uleb128 .LEHB99-.LFB4896
	.uleb128 .LEHE99-.LEHB99
	.uleb128 .L502-.LFB4896
	.uleb128 0
	.uleb128 .LEHB100-.LFB4896
	.uleb128 .LEHE100-.LEHB100
	.uleb128 0
	.uleb128 0
.LLSDACSE4896:
	.section	.text._ZSt13regex_replaceINSt7__cxx1112regex_traitsIcEEcSt11char_traitsIcESaIcES4_S5_ENS0_12basic_stringIT0_T1_T2_EERKSA_RKNS0_11basic_regexIS7_T_EERKNS6_IS7_T3_T4_EENSt15regex_constants15match_flag_typeE,"axG",@progbits,_ZSt13regex_replaceINSt7__cxx1112regex_traitsIcEEcSt11char_traitsIcESaIcES4_S5_ENS0_12basic_stringIT0_T1_T2_EERKSA_RKNS0_11basic_regexIS7_T_EERKNS6_IS7_T3_T4_EENSt15regex_constants15match_flag_typeE,comdat
	.size	_ZSt13regex_replaceINSt7__cxx1112regex_traitsIcEEcSt11char_traitsIcESaIcES4_S5_ENS0_12basic_stringIT0_T1_T2_EERKSA_RKNS0_11basic_regexIS7_T_EERKNS6_IS7_T3_T4_EENSt15regex_constants15match_flag_typeE, .-_ZSt13regex_replaceINSt7__cxx1112regex_traitsIcEEcSt11char_traitsIcESaIcES4_S5_ENS0_12basic_stringIT0_T1_T2_EERKSA_RKNS0_11basic_regexIS7_T_EERKNS6_IS7_T3_T4_EENSt15regex_constants15match_flag_typeE
	.section	.text._Z5printINSt7__cxx1112basic_stringIcSt11char_traitsIcESaIcEEEEvRKT_,"axG",@progbits,_Z5printINSt7__cxx1112basic_stringIcSt11char_traitsIcESaIcEEEEvRKT_,comdat
	.weak	_Z5printINSt7__cxx1112basic_stringIcSt11char_traitsIcESaIcEEEEvRKT_
	.type	_Z5printINSt7__cxx1112basic_stringIcSt11char_traitsIcESaIcEEEEvRKT_, @function
_Z5printINSt7__cxx1112basic_stringIcSt11char_traitsIcESaIcEEEEvRKT_:
.LFB4897:
	.cfi_startproc
	pushq	%rbp
	.cfi_def_cfa_offset 16
	.cfi_offset 6, -16
	movq	%rsp, %rbp
	.cfi_def_cfa_register 6
	subq	$16, %rsp
	movq	%rdi, -8(%rbp)
	movq	-8(%rbp), %rax
	movq	%rax, %rsi
	leaq	_ZSt4cout(%rip), %rax
	movq	%rax, %rdi
	call	_ZStlsIcSt11char_traitsIcESaIcEERSt13basic_ostreamIT_T0_ES7_RKNSt7__cxx1112basic_stringIS4_S5_T1_EE@PLT
	movq	_ZSt4endlIcSt11char_traitsIcEERSt13basic_ostreamIT_T0_ES6_@GOTPCREL(%rip), %rdx
	movq	%rdx, %rsi
	movq	%rax, %rdi
	call	_ZNSolsEPFRSoS_E@PLT
	nop
	leave
	.cfi_def_cfa 7, 8
	ret
	.cfi_endproc
.LFE4897:
	.size	_Z5printINSt7__cxx1112basic_stringIcSt11char_traitsIcESaIcEEEEvRKT_, .-_Z5printINSt7__cxx1112basic_stringIcSt11char_traitsIcESaIcEEEEvRKT_
	.section	.text._ZN9__gnu_cxx11char_traitsIcE2eqERKcS3_,"axG",@progbits,_ZN9__gnu_cxx11char_traitsIcE2eqERKcS3_,comdat
	.weak	_ZN9__gnu_cxx11char_traitsIcE2eqERKcS3_
	.type	_ZN9__gnu_cxx11char_traitsIcE2eqERKcS3_, @function
_ZN9__gnu_cxx11char_traitsIcE2eqERKcS3_:
.LFB4898:
	.cfi_startproc
	pushq	%rbp
	.cfi_def_cfa_offset 16
	.cfi_offset 6, -16
	movq	%rsp, %rbp
	.cfi_def_cfa_register 6
	movq	%rdi, -8(%rbp)
	movq	%rsi, -16(%rbp)
	movq	-8(%rbp), %rax
	movzbl	(%rax), %edx
	movq	-16(%rbp), %rax
	movzbl	(%rax), %eax
	cmpb	%al, %dl
	sete	%al
	popq	%rbp
	.cfi_def_cfa 7, 8
	ret
	.cfi_endproc
.LFE4898:
	.size	_ZN9__gnu_cxx11char_traitsIcE2eqERKcS3_, .-_ZN9__gnu_cxx11char_traitsIcE2eqERKcS3_
	.section	.text._ZNSt7__cxx1112basic_stringIcSt11char_traitsIcESaIcEEC2IPcvEET_S7_RKS3_,"axG",@progbits,_ZNSt7__cxx1112basic_stringIcSt11char_traitsIcESaIcEEC5IPcvEET_S7_RKS3_,comdat
	.align 2
	.weak	_ZNSt7__cxx1112basic_stringIcSt11char_traitsIcESaIcEEC2IPcvEET_S7_RKS3_
	.type	_ZNSt7__cxx1112basic_stringIcSt11char_traitsIcESaIcEEC2IPcvEET_S7_RKS3_, @function
_ZNSt7__cxx1112basic_stringIcSt11char_traitsIcESaIcEEC2IPcvEET_S7_RKS3_:
.LFB4924:
	.cfi_startproc
	.cfi_personality 0x9b,DW.ref.__gxx_personality_v0
	.cfi_lsda 0x1b,.LLSDA4924
	pushq	%rbp
	.cfi_def_cfa_offset 16
	.cfi_offset 6, -16
	movq	%rsp, %rbp
	.cfi_def_cfa_register 6
	pushq	%rbx
	subq	$56, %rsp
	.cfi_offset 3, -24
	movq	%rdi, -40(%rbp)
	movq	%rsi, -48(%rbp)
	movq	%rdx, -56(%rbp)
	movq	%rcx, -64(%rbp)
	movq	-40(%rbp), %rbx
	movq	-40(%rbp), %rax
	movq	%rax, %rdi
	call	_ZNSt7__cxx1112basic_stringIcSt11char_traitsIcESaIcEE13_M_local_dataEv@PLT
	movq	%rax, %rcx
	movq	-64(%rbp), %rax
	movq	%rax, %rdx
	movq	%rcx, %rsi
	movq	%rbx, %rdi
	call	_ZNSt7__cxx1112basic_stringIcSt11char_traitsIcESaIcEE12_Alloc_hiderC1EPcRKS3_@PLT
	leaq	-48(%rbp), %rax
	movq	%rax, %rdi
	call	_ZSt19__iterator_categoryIPcENSt15iterator_traitsIT_E17iterator_categoryERKS2_
	movq	-48(%rbp), %rcx
	movq	-56(%rbp), %rdx
	movq	-40(%rbp), %rax
	movq	%rcx, %rsi
	movq	%rax, %rdi
.LEHB101:
	call	_ZNSt7__cxx1112basic_stringIcSt11char_traitsIcESaIcEE12_M_constructIPcEEvT_S7_St20forward_iterator_tag
.LEHE101:
	jmp	.L510
.L509:
	movq	%rax, %rbx
	movq	-40(%rbp), %rax
	movq	%rax, %rdi
	call	_ZNSt7__cxx1112basic_stringIcSt11char_traitsIcESaIcEE12_Alloc_hiderD1Ev
	movq	%rbx, %rax
	movq	%rax, %rdi
.LEHB102:
	call	_Unwind_Resume@PLT
.LEHE102:
.L510:
	movq	-8(%rbp), %rbx
	leave
	.cfi_def_cfa 7, 8
	ret
	.cfi_endproc
.LFE4924:
	.section	.gcc_except_table
.LLSDA4924:
	.byte	0xff
	.byte	0xff
	.byte	0x1
	.uleb128 .LLSDACSE4924-.LLSDACSB4924
.LLSDACSB4924:
	.uleb128 .LEHB101-.LFB4924
	.uleb128 .LEHE101-.LEHB101
	.uleb128 .L509-.LFB4924
	.uleb128 0
	.uleb128 .LEHB102-.LFB4924
	.uleb128 .LEHE102-.LEHB102
	.uleb128 0
	.uleb128 0
.LLSDACSE4924:
	.section	.text._ZNSt7__cxx1112basic_stringIcSt11char_traitsIcESaIcEEC2IPcvEET_S7_RKS3_,"axG",@progbits,_ZNSt7__cxx1112basic_stringIcSt11char_traitsIcESaIcEEC5IPcvEET_S7_RKS3_,comdat
	.size	_ZNSt7__cxx1112basic_stringIcSt11char_traitsIcESaIcEEC2IPcvEET_S7_RKS3_, .-_ZNSt7__cxx1112basic_stringIcSt11char_traitsIcESaIcEEC2IPcvEET_S7_RKS3_
	.weak	_ZNSt7__cxx1112basic_stringIcSt11char_traitsIcESaIcEEC1IPcvEET_S7_RKS3_
	.set	_ZNSt7__cxx1112basic_stringIcSt11char_traitsIcESaIcEEC1IPcvEET_S7_RKS3_,_ZNSt7__cxx1112basic_stringIcSt11char_traitsIcESaIcEEC2IPcvEET_S7_RKS3_
	.section	.text._ZZNSt7__cxx1112basic_stringIcSt11char_traitsIcESaIcEE12_M_constructIPKcEEvT_S8_St20forward_iterator_tagEN6_GuardC2EPS4_,"axG",@progbits,_ZZNSt7__cxx1112basic_stringIcSt11char_traitsIcESaIcEE12_M_constructIPKcEEvT_S8_St20forward_iterator_tagEN6_GuardC5EPS4_,comdat
	.align 2
	.weak	_ZZNSt7__cxx1112basic_stringIcSt11char_traitsIcESaIcEE12_M_constructIPKcEEvT_S8_St20forward_iterator_tagEN6_GuardC2EPS4_
	.type	_ZZNSt7__cxx1112basic_stringIcSt11char_traitsIcESaIcEE12_M_constructIPKcEEvT_S8_St20forward_iterator_tagEN6_GuardC2EPS4_, @function
_ZZNSt7__cxx1112basic_stringIcSt11char_traitsIcESaIcEE12_M_constructIPKcEEvT_S8_St20forward_iterator_tagEN6_GuardC2EPS4_:
.LFB4935:
	.cfi_startproc
	pushq	%rbp
	.cfi_def_cfa_offset 16
	.cfi_offset 6, -16
	movq	%rsp, %rbp
	.cfi_def_cfa_register 6
	movq	%rdi, -8(%rbp)
	movq	%rsi, -16(%rbp)
	movq	-8(%rbp), %rax
	movq	-16(%rbp), %rdx
	movq	%rdx, (%rax)
	nop
	popq	%rbp
	.cfi_def_cfa 7, 8
	ret
	.cfi_endproc
.LFE4935:
	.size	_ZZNSt7__cxx1112basic_stringIcSt11char_traitsIcESaIcEE12_M_constructIPKcEEvT_S8_St20forward_iterator_tagEN6_GuardC2EPS4_, .-_ZZNSt7__cxx1112basic_stringIcSt11char_traitsIcESaIcEE12_M_constructIPKcEEvT_S8_St20forward_iterator_tagEN6_GuardC2EPS4_
	.weak	_ZZNSt7__cxx1112basic_stringIcSt11char_traitsIcESaIcEE12_M_constructIPKcEEvT_S8_St20forward_iterator_tagEN6_GuardC1EPS4_
	.set	_ZZNSt7__cxx1112basic_stringIcSt11char_traitsIcESaIcEE12_M_constructIPKcEEvT_S8_St20forward_iterator_tagEN6_GuardC1EPS4_,_ZZNSt7__cxx1112basic_stringIcSt11char_traitsIcESaIcEE12_M_constructIPKcEEvT_S8_St20forward_iterator_tagEN6_GuardC2EPS4_
	.section	.text._ZZNSt7__cxx1112basic_stringIcSt11char_traitsIcESaIcEE12_M_constructIPKcEEvT_S8_St20forward_iterator_tagEN6_GuardD2Ev,"axG",@progbits,_ZZNSt7__cxx1112basic_stringIcSt11char_traitsIcESaIcEE12_M_constructIPKcEEvT_S8_St20forward_iterator_tagEN6_GuardD5Ev,comdat
	.align 2
	.weak	_ZZNSt7__cxx1112basic_stringIcSt11char_traitsIcESaIcEE12_M_constructIPKcEEvT_S8_St20forward_iterator_tagEN6_GuardD2Ev
	.type	_ZZNSt7__cxx1112basic_stringIcSt11char_traitsIcESaIcEE12_M_constructIPKcEEvT_S8_St20forward_iterator_tagEN6_GuardD2Ev, @function
_ZZNSt7__cxx1112basic_stringIcSt11char_traitsIcESaIcEE12_M_constructIPKcEEvT_S8_St20forward_iterator_tagEN6_GuardD2Ev:
.LFB4938:
	.cfi_startproc
	.cfi_personality 0x9b,DW.ref.__gxx_personality_v0
	.cfi_lsda 0x1b,.LLSDA4938
	pushq	%rbp
	.cfi_def_cfa_offset 16
	.cfi_offset 6, -16
	movq	%rsp, %rbp
	.cfi_def_cfa_register 6
	subq	$16, %rsp
	movq	%rdi, -8(%rbp)
	movq	-8(%rbp), %rax
	movq	(%rax), %rax
	testq	%rax, %rax
	je	.L514
	movq	-8(%rbp), %rax
	movq	(%rax), %rax
	movq	%rax, %rdi
	call	_ZNSt7__cxx1112basic_stringIcSt11char_traitsIcESaIcEE10_M_disposeEv@PLT
.L514:
	nop
	leave
	.cfi_def_cfa 7, 8
	ret
	.cfi_endproc
.LFE4938:
	.section	.gcc_except_table
.LLSDA4938:
	.byte	0xff
	.byte	0xff
	.byte	0x1
	.uleb128 .LLSDACSE4938-.LLSDACSB4938
.LLSDACSB4938:
.LLSDACSE4938:
	.section	.text._ZZNSt7__cxx1112basic_stringIcSt11char_traitsIcESaIcEE12_M_constructIPKcEEvT_S8_St20forward_iterator_tagEN6_GuardD2Ev,"axG",@progbits,_ZZNSt7__cxx1112basic_stringIcSt11char_traitsIcESaIcEE12_M_constructIPKcEEvT_S8_St20forward_iterator_tagEN6_GuardD5Ev,comdat
	.size	_ZZNSt7__cxx1112basic_stringIcSt11char_traitsIcESaIcEE12_M_constructIPKcEEvT_S8_St20forward_iterator_tagEN6_GuardD2Ev, .-_ZZNSt7__cxx1112basic_stringIcSt11char_traitsIcESaIcEE12_M_constructIPKcEEvT_S8_St20forward_iterator_tagEN6_GuardD2Ev
	.weak	_ZZNSt7__cxx1112basic_stringIcSt11char_traitsIcESaIcEE12_M_constructIPKcEEvT_S8_St20forward_iterator_tagEN6_GuardD1Ev
	.set	_ZZNSt7__cxx1112basic_stringIcSt11char_traitsIcESaIcEE12_M_constructIPKcEEvT_S8_St20forward_iterator_tagEN6_GuardD1Ev,_ZZNSt7__cxx1112basic_stringIcSt11char_traitsIcESaIcEE12_M_constructIPKcEEvT_S8_St20forward_iterator_tagEN6_GuardD2Ev
	.section	.text._ZNSt7__cxx1112basic_stringIcSt11char_traitsIcESaIcEE12_M_constructIPKcEEvT_S8_St20forward_iterator_tag,"axG",@progbits,_ZNSt7__cxx1112basic_stringIcSt11char_traitsIcESaIcEE12_M_constructIPKcEEvT_S8_St20forward_iterator_tag,comdat
	.align 2
	.weak	_ZNSt7__cxx1112basic_stringIcSt11char_traitsIcESaIcEE12_M_constructIPKcEEvT_S8_St20forward_iterator_tag
	.type	_ZNSt7__cxx1112basic_stringIcSt11char_traitsIcESaIcEE12_M_constructIPKcEEvT_S8_St20forward_iterator_tag, @function
_ZNSt7__cxx1112basic_stringIcSt11char_traitsIcESaIcEE12_M_constructIPKcEEvT_S8_St20forward_iterator_tag:
.LFB4933:
	.cfi_startproc
	pushq	%rbp
	.cfi_def_cfa_offset 16
	.cfi_offset 6, -16
	movq	%rsp, %rbp
	.cfi_def_cfa_register 6
	subq	$64, %rsp
	movq	%rdi, -40(%rbp)
	movq	%rsi, -48(%rbp)
	movq	%rdx, -56(%rbp)
	movq	-56(%rbp), %rdx
	movq	-48(%rbp), %rax
	movq	%rdx, %rsi
	movq	%rax, %rdi
	call	_ZSt8distanceIPKcENSt15iterator_traitsIT_E15difference_typeES3_S3_
	movq	%rax, -16(%rbp)
	movq	-16(%rbp), %rax
	cmpq	$15, %rax
	jbe	.L516
	leaq	-16(%rbp), %rcx
	movq	-40(%rbp), %rax
	movl	$0, %edx
	movq	%rcx, %rsi
	movq	%rax, %rdi
	call	_ZNSt7__cxx1112basic_stringIcSt11char_traitsIcESaIcEE9_M_createERmm@PLT
	movq	%rax, %rdx
	movq	-40(%rbp), %rax
	movq	%rdx, %rsi
	movq	%rax, %rdi
	call	_ZNSt7__cxx1112basic_stringIcSt11char_traitsIcESaIcEE7_M_dataEPc@PLT
	movq	-16(%rbp), %rdx
	movq	-40(%rbp), %rax
	movq	%rdx, %rsi
	movq	%rax, %rdi
	call	_ZNSt7__cxx1112basic_stringIcSt11char_traitsIcESaIcEE11_M_capacityEm@PLT
	jmp	.L517
.L516:
	movq	-40(%rbp), %rax
	movq	%rax, -8(%rbp)
	movq	-8(%rbp), %rax
	movq	%rax, %rdi
	call	_ZNSt7__cxx1112basic_stringIcSt11char_traitsIcESaIcEE13_M_local_dataEv@PLT
	nop
.L517:
	movq	-40(%rbp), %rdx
	leaq	-24(%rbp), %rax
	movq	%rdx, %rsi
	movq	%rax, %rdi
	call	_ZZNSt7__cxx1112basic_stringIcSt11char_traitsIcESaIcEE12_M_constructIPKcEEvT_S8_St20forward_iterator_tagEN6_GuardC1EPS4_
	movq	-40(%rbp), %rax
	movq	%rax, %rdi
	call	_ZNKSt7__cxx1112basic_stringIcSt11char_traitsIcESaIcEE7_M_dataEv@PLT
	movq	%rax, %rcx
	movq	-56(%rbp), %rdx
	movq	-48(%rbp), %rax
	movq	%rax, %rsi
	movq	%rcx, %rdi
	call	_ZNSt7__cxx1112basic_stringIcSt11char_traitsIcESaIcEE13_S_copy_charsEPcPKcS7_@PLT
	movq	$0, -24(%rbp)
	movq	-16(%rbp), %rdx
	movq	-40(%rbp), %rax
	movq	%rdx, %rsi
	movq	%rax, %rdi
	call	_ZNSt7__cxx1112basic_stringIcSt11char_traitsIcESaIcEE13_M_set_lengthEm@PLT
	leaq	-24(%rbp), %rax
	movq	%rax, %rdi
	call	_ZZNSt7__cxx1112basic_stringIcSt11char_traitsIcESaIcEE12_M_constructIPKcEEvT_S8_St20forward_iterator_tagEN6_GuardD1Ev
	leave
	.cfi_def_cfa 7, 8
	ret
	.cfi_endproc
.LFE4933:
	.size	_ZNSt7__cxx1112basic_stringIcSt11char_traitsIcESaIcEE12_M_constructIPKcEEvT_S8_St20forward_iterator_tag, .-_ZNSt7__cxx1112basic_stringIcSt11char_traitsIcESaIcEE12_M_constructIPKcEEvT_S8_St20forward_iterator_tag
	.section	.text._ZSt4moveIRNSt7__cxx1112basic_stringIcSt11char_traitsIcESaIcEEEEONSt16remove_referenceIT_E4typeEOS8_,"axG",@progbits,_ZSt4moveIRNSt7__cxx1112basic_stringIcSt11char_traitsIcESaIcEEEEONSt16remove_referenceIT_E4typeEOS8_,comdat
	.weak	_ZSt4moveIRNSt7__cxx1112basic_stringIcSt11char_traitsIcESaIcEEEEONSt16remove_referenceIT_E4typeEOS8_
	.type	_ZSt4moveIRNSt7__cxx1112basic_stringIcSt11char_traitsIcESaIcEEEEONSt16remove_referenceIT_E4typeEOS8_, @function
_ZSt4moveIRNSt7__cxx1112basic_stringIcSt11char_traitsIcESaIcEEEEONSt16remove_referenceIT_E4typeEOS8_:
.LFB4999:
	.cfi_startproc
	pushq	%rbp
	.cfi_def_cfa_offset 16
	.cfi_offset 6, -16
	movq	%rsp, %rbp
	.cfi_def_cfa_register 6
	movq	%rdi, -8(%rbp)
	movq	-8(%rbp), %rax
	popq	%rbp
	.cfi_def_cfa 7, 8
	ret
	.cfi_endproc
.LFE4999:
	.size	_ZSt4moveIRNSt7__cxx1112basic_stringIcSt11char_traitsIcESaIcEEEEONSt16remove_referenceIT_E4typeEOS8_, .-_ZSt4moveIRNSt7__cxx1112basic_stringIcSt11char_traitsIcESaIcEEEEONSt16remove_referenceIT_E4typeEOS8_
	.section	.text._ZNSt16_Sp_counted_baseILN9__gnu_cxx12_Lock_policyE2EED2Ev,"axG",@progbits,_ZNSt16_Sp_counted_baseILN9__gnu_cxx12_Lock_policyE2EED5Ev,comdat
	.align 2
	.weak	_ZNSt16_Sp_counted_baseILN9__gnu_cxx12_Lock_policyE2EED2Ev
	.type	_ZNSt16_Sp_counted_baseILN9__gnu_cxx12_Lock_policyE2EED2Ev, @function
_ZNSt16_Sp_counted_baseILN9__gnu_cxx12_Lock_policyE2EED2Ev:
.LFB5008:
	.cfi_startproc
	pushq	%rbp
	.cfi_def_cfa_offset 16
	.cfi_offset 6, -16
	movq	%rsp, %rbp
	.cfi_def_cfa_register 6
	movq	%rdi, -8(%rbp)
	leaq	16+_ZTVSt16_Sp_counted_baseILN9__gnu_cxx12_Lock_policyE2EE(%rip), %rdx
	movq	-8(%rbp), %rax
	movq	%rdx, (%rax)
	nop
	popq	%rbp
	.cfi_def_cfa 7, 8
	ret
	.cfi_endproc
.LFE5008:
	.size	_ZNSt16_Sp_counted_baseILN9__gnu_cxx12_Lock_policyE2EED2Ev, .-_ZNSt16_Sp_counted_baseILN9__gnu_cxx12_Lock_policyE2EED2Ev
	.weak	_ZNSt16_Sp_counted_baseILN9__gnu_cxx12_Lock_policyE2EED1Ev
	.set	_ZNSt16_Sp_counted_baseILN9__gnu_cxx12_Lock_policyE2EED1Ev,_ZNSt16_Sp_counted_baseILN9__gnu_cxx12_Lock_policyE2EED2Ev
	.section	.text._ZNSt16_Sp_counted_baseILN9__gnu_cxx12_Lock_policyE2EED0Ev,"axG",@progbits,_ZNSt16_Sp_counted_baseILN9__gnu_cxx12_Lock_policyE2EED5Ev,comdat
	.align 2
	.weak	_ZNSt16_Sp_counted_baseILN9__gnu_cxx12_Lock_policyE2EED0Ev
	.type	_ZNSt16_Sp_counted_baseILN9__gnu_cxx12_Lock_policyE2EED0Ev, @function
_ZNSt16_Sp_counted_baseILN9__gnu_cxx12_Lock_policyE2EED0Ev:
.LFB5010:
	.cfi_startproc
	pushq	%rbp
	.cfi_def_cfa_offset 16
	.cfi_offset 6, -16
	movq	%rsp, %rbp
	.cfi_def_cfa_register 6
	subq	$16, %rsp
	movq	%rdi, -8(%rbp)
	movq	-8(%rbp), %rax
	movq	%rax, %rdi
	call	_ZNSt16_Sp_counted_baseILN9__gnu_cxx12_Lock_policyE2EED1Ev
	movq	-8(%rbp), %rax
	movl	$16, %esi
	movq	%rax, %rdi
	call	_ZdlPvm@PLT
	leave
	.cfi_def_cfa 7, 8
	ret
	.cfi_endproc
.LFE5010:
	.size	_ZNSt16_Sp_counted_baseILN9__gnu_cxx12_Lock_policyE2EED0Ev, .-_ZNSt16_Sp_counted_baseILN9__gnu_cxx12_Lock_policyE2EED0Ev
	.section	.text._ZNSt16_Sp_counted_baseILN9__gnu_cxx12_Lock_policyE2EE19_M_release_last_useEv,"axG",@progbits,_ZNSt16_Sp_counted_baseILN9__gnu_cxx12_Lock_policyE2EE19_M_release_last_useEv,comdat
	.align 2
	.weak	_ZNSt16_Sp_counted_baseILN9__gnu_cxx12_Lock_policyE2EE19_M_release_last_useEv
	.type	_ZNSt16_Sp_counted_baseILN9__gnu_cxx12_Lock_policyE2EE19_M_release_last_useEv, @function
_ZNSt16_Sp_counted_baseILN9__gnu_cxx12_Lock_policyE2EE19_M_release_last_useEv:
.LFB5011:
	.cfi_startproc
	pushq	%rbp
	.cfi_def_cfa_offset 16
	.cfi_offset 6, -16
	movq	%rsp, %rbp
	.cfi_def_cfa_register 6
	subq	$64, %rsp
	movq	%rdi, -56(%rbp)
	movq	-56(%rbp), %rax
	movq	(%rax), %rax
	addq	$16, %rax
	movq	(%rax), %rdx
	movq	-56(%rbp), %rax
	movq	%rax, %rdi
	call	*%rdx
	movq	-56(%rbp), %rax
	addq	$12, %rax
	movq	%rax, -8(%rbp)
	movl	$-1, -12(%rbp)
	movzbl	__libc_single_threaded(%rip), %eax
	testb	%al, %al
	setne	%al
	testb	%al, %al
	je	.L525
	movq	-8(%rbp), %rax
	movq	%rax, -24(%rbp)
	movl	-12(%rbp), %eax
	movl	%eax, -28(%rbp)
	movq	-24(%rbp), %rax
	movl	(%rax), %eax
	movl	%eax, -32(%rbp)
	movq	-24(%rbp), %rax
	movl	(%rax), %edx
	movl	-28(%rbp), %eax
	addl	%eax, %edx
	movq	-24(%rbp), %rax
	movl	%edx, (%rax)
	movl	-32(%rbp), %eax
	jmp	.L527
.L525:
	movq	-8(%rbp), %rax
	movq	%rax, -40(%rbp)
	movl	-12(%rbp), %eax
	movl	%eax, -44(%rbp)
	movl	-44(%rbp), %edx
	movq	-40(%rbp), %rax
	lock xaddl	%edx, (%rax)
	movl	%edx, %eax
	nop
.L527:
	cmpl	$1, %eax
	sete	%al
	testb	%al, %al
	je	.L530
	movq	-56(%rbp), %rax
	movq	(%rax), %rax
	addq	$24, %rax
	movq	(%rax), %rdx
	movq	-56(%rbp), %rax
	movq	%rax, %rdi
	call	*%rdx
.L530:
	nop
	leave
	.cfi_def_cfa 7, 8
	ret
	.cfi_endproc
.LFE5011:
	.size	_ZNSt16_Sp_counted_baseILN9__gnu_cxx12_Lock_policyE2EE19_M_release_last_useEv, .-_ZNSt16_Sp_counted_baseILN9__gnu_cxx12_Lock_policyE2EE19_M_release_last_useEv
	.section	.text._ZNSaImEC2Ev,"axG",@progbits,_ZNSaImEC5Ev,comdat
	.align 2
	.weak	_ZNSaImEC2Ev
	.type	_ZNSaImEC2Ev, @function
_ZNSaImEC2Ev:
.LFB5013:
	.cfi_startproc
	pushq	%rbp
	.cfi_def_cfa_offset 16
	.cfi_offset 6, -16
	movq	%rsp, %rbp
	.cfi_def_cfa_register 6
	subq	$16, %rsp
	movq	%rdi, -8(%rbp)
	movq	-8(%rbp), %rax
	movq	%rax, %rdi
	call	_ZNSt15__new_allocatorImEC2Ev
	nop
	leave
	.cfi_def_cfa 7, 8
	ret
	.cfi_endproc
.LFE5013:
	.size	_ZNSaImEC2Ev, .-_ZNSaImEC2Ev
	.weak	_ZNSaImEC1Ev
	.set	_ZNSaImEC1Ev,_ZNSaImEC2Ev
	.section	.text._ZNSt12_Vector_baseImSaImEE17_Vector_impl_dataC2Ev,"axG",@progbits,_ZNSt12_Vector_baseImSaImEE17_Vector_impl_dataC5Ev,comdat
	.align 2
	.weak	_ZNSt12_Vector_baseImSaImEE17_Vector_impl_dataC2Ev
	.type	_ZNSt12_Vector_baseImSaImEE17_Vector_impl_dataC2Ev, @function
_ZNSt12_Vector_baseImSaImEE17_Vector_impl_dataC2Ev:
.LFB5016:
	.cfi_startproc
	pushq	%rbp
	.cfi_def_cfa_offset 16
	.cfi_offset 6, -16
	movq	%rsp, %rbp
	.cfi_def_cfa_register 6
	movq	%rdi, -8(%rbp)
	movq	-8(%rbp), %rax
	movq	$0, (%rax)
	movq	-8(%rbp), %rax
	movq	$0, 8(%rax)
	movq	-8(%rbp), %rax
	movq	$0, 16(%rax)
	nop
	popq	%rbp
	.cfi_def_cfa 7, 8
	ret
	.cfi_endproc
.LFE5016:
	.size	_ZNSt12_Vector_baseImSaImEE17_Vector_impl_dataC2Ev, .-_ZNSt12_Vector_baseImSaImEE17_Vector_impl_dataC2Ev
	.weak	_ZNSt12_Vector_baseImSaImEE17_Vector_impl_dataC1Ev
	.set	_ZNSt12_Vector_baseImSaImEE17_Vector_impl_dataC1Ev,_ZNSt12_Vector_baseImSaImEE17_Vector_impl_dataC2Ev
	.section	.text._ZNSt15__new_allocatorImED2Ev,"axG",@progbits,_ZNSt15__new_allocatorImED5Ev,comdat
	.align 2
	.weak	_ZNSt15__new_allocatorImED2Ev
	.type	_ZNSt15__new_allocatorImED2Ev, @function
_ZNSt15__new_allocatorImED2Ev:
.LFB5019:
	.cfi_startproc
	pushq	%rbp
	.cfi_def_cfa_offset 16
	.cfi_offset 6, -16
	movq	%rsp, %rbp
	.cfi_def_cfa_register 6
	movq	%rdi, -8(%rbp)
	nop
	popq	%rbp
	.cfi_def_cfa 7, 8
	ret
	.cfi_endproc
.LFE5019:
	.size	_ZNSt15__new_allocatorImED2Ev, .-_ZNSt15__new_allocatorImED2Ev
	.weak	_ZNSt15__new_allocatorImED1Ev
	.set	_ZNSt15__new_allocatorImED1Ev,_ZNSt15__new_allocatorImED2Ev
	.section	.text._ZNSt12_Vector_baseImSaImEE13_M_deallocateEPmm,"axG",@progbits,_ZNSt12_Vector_baseImSaImEE13_M_deallocateEPmm,comdat
	.align 2
	.weak	_ZNSt12_Vector_baseImSaImEE13_M_deallocateEPmm
	.type	_ZNSt12_Vector_baseImSaImEE13_M_deallocateEPmm, @function
_ZNSt12_Vector_baseImSaImEE13_M_deallocateEPmm:
.LFB5021:
	.cfi_startproc
	pushq	%rbp
	.cfi_def_cfa_offset 16
	.cfi_offset 6, -16
	movq	%rsp, %rbp
	.cfi_def_cfa_register 6
	subq	$32, %rsp
	movq	%rdi, -8(%rbp)
	movq	%rsi, -16(%rbp)
	movq	%rdx, -24(%rbp)
	cmpq	$0, -16(%rbp)
	je	.L536
	movq	-8(%rbp), %rax
	movq	-24(%rbp), %rdx
	movq	-16(%rbp), %rcx
	movq	%rcx, %rsi
	movq	%rax, %rdi
	call	_ZNSt16allocator_traitsISaImEE10deallocateERS0_Pmm
.L536:
	nop
	leave
	.cfi_def_cfa 7, 8
	ret
	.cfi_endproc
.LFE5021:
	.size	_ZNSt12_Vector_baseImSaImEE13_M_deallocateEPmm, .-_ZNSt12_Vector_baseImSaImEE13_M_deallocateEPmm
	.section	.text._ZNSt12_Vector_baseImSaImEE19_M_get_Tp_allocatorEv,"axG",@progbits,_ZNSt12_Vector_baseImSaImEE19_M_get_Tp_allocatorEv,comdat
	.align 2
	.weak	_ZNSt12_Vector_baseImSaImEE19_M_get_Tp_allocatorEv
	.type	_ZNSt12_Vector_baseImSaImEE19_M_get_Tp_allocatorEv, @function
_ZNSt12_Vector_baseImSaImEE19_M_get_Tp_allocatorEv:
.LFB5022:
	.cfi_startproc
	pushq	%rbp
	.cfi_def_cfa_offset 16
	.cfi_offset 6, -16
	movq	%rsp, %rbp
	.cfi_def_cfa_register 6
	movq	%rdi, -8(%rbp)
	movq	-8(%rbp), %rax
	popq	%rbp
	.cfi_def_cfa 7, 8
	ret
	.cfi_endproc
.LFE5022:
	.size	_ZNSt12_Vector_baseImSaImEE19_M_get_Tp_allocatorEv, .-_ZNSt12_Vector_baseImSaImEE19_M_get_Tp_allocatorEv
	.section	.text._ZSt8_DestroyIPmmEvT_S1_RSaIT0_E,"axG",@progbits,_ZSt8_DestroyIPmmEvT_S1_RSaIT0_E,comdat
	.weak	_ZSt8_DestroyIPmmEvT_S1_RSaIT0_E
	.type	_ZSt8_DestroyIPmmEvT_S1_RSaIT0_E, @function
_ZSt8_DestroyIPmmEvT_S1_RSaIT0_E:
.LFB5023:
	.cfi_startproc
	pushq	%rbp
	.cfi_def_cfa_offset 16
	.cfi_offset 6, -16
	movq	%rsp, %rbp
	.cfi_def_cfa_register 6
	subq	$32, %rsp
	movq	%rdi, -8(%rbp)
	movq	%rsi, -16(%rbp)
	movq	%rdx, -24(%rbp)
	movq	-16(%rbp), %rdx
	movq	-8(%rbp), %rax
	movq	%rdx, %rsi
	movq	%rax, %rdi
	call	_ZSt8_DestroyIPmEvT_S1_
	nop
	leave
	.cfi_def_cfa 7, 8
	ret
	.cfi_endproc
.LFE5023:
	.size	_ZSt8_DestroyIPmmEvT_S1_RSaIT0_E, .-_ZSt8_DestroyIPmmEvT_S1_RSaIT0_E
	.section	.text._ZNSt10shared_ptrIKNSt8__detail4_NFAINSt7__cxx1112regex_traitsIcEEEEEC2Ev,"axG",@progbits,_ZNSt10shared_ptrIKNSt8__detail4_NFAINSt7__cxx1112regex_traitsIcEEEEEC5Ev,comdat
	.align 2
	.weak	_ZNSt10shared_ptrIKNSt8__detail4_NFAINSt7__cxx1112regex_traitsIcEEEEEC2Ev
	.type	_ZNSt10shared_ptrIKNSt8__detail4_NFAINSt7__cxx1112regex_traitsIcEEEEEC2Ev, @function
_ZNSt10shared_ptrIKNSt8__detail4_NFAINSt7__cxx1112regex_traitsIcEEEEEC2Ev:
.LFB5025:
	.cfi_startproc
	pushq	%rbp
	.cfi_def_cfa_offset 16
	.cfi_offset 6, -16
	movq	%rsp, %rbp
	.cfi_def_cfa_register 6
	subq	$16, %rsp
	movq	%rdi, -8(%rbp)
	movq	-8(%rbp), %rax
	movq	%rax, %rdi
	call	_ZNSt12__shared_ptrIKNSt8__detail4_NFAINSt7__cxx1112regex_traitsIcEEEELN9__gnu_cxx12_Lock_policyE2EEC2Ev
	nop
	leave
	.cfi_def_cfa 7, 8
	ret
	.cfi_endproc
.LFE5025:
	.size	_ZNSt10shared_ptrIKNSt8__detail4_NFAINSt7__cxx1112regex_traitsIcEEEEEC2Ev, .-_ZNSt10shared_ptrIKNSt8__detail4_NFAINSt7__cxx1112regex_traitsIcEEEEEC2Ev
	.weak	_ZNSt10shared_ptrIKNSt8__detail4_NFAINSt7__cxx1112regex_traitsIcEEEEEC1Ev
	.set	_ZNSt10shared_ptrIKNSt8__detail4_NFAINSt7__cxx1112regex_traitsIcEEEEEC1Ev,_ZNSt10shared_ptrIKNSt8__detail4_NFAINSt7__cxx1112regex_traitsIcEEEEEC2Ev
	.section	.text._ZNSt14__shared_countILN9__gnu_cxx12_Lock_policyE2EED2Ev,"axG",@progbits,_ZNSt14__shared_countILN9__gnu_cxx12_Lock_policyE2EED5Ev,comdat
	.align 2
	.weak	_ZNSt14__shared_countILN9__gnu_cxx12_Lock_policyE2EED2Ev
	.type	_ZNSt14__shared_countILN9__gnu_cxx12_Lock_policyE2EED2Ev, @function
_ZNSt14__shared_countILN9__gnu_cxx12_Lock_policyE2EED2Ev:
.LFB5028:
	.cfi_startproc
	pushq	%rbp
	.cfi_def_cfa_offset 16
	.cfi_offset 6, -16
	movq	%rsp, %rbp
	.cfi_def_cfa_register 6
	subq	$16, %rsp
	movq	%rdi, -8(%rbp)
	movq	-8(%rbp), %rax
	movq	(%rax), %rax
	testq	%rax, %rax
	je	.L543
	movq	-8(%rbp), %rax
	movq	(%rax), %rax
	movq	%rax, %rdi
	call	_ZNSt16_Sp_counted_baseILN9__gnu_cxx12_Lock_policyE2EE10_M_releaseEv
.L543:
	nop
	leave
	.cfi_def_cfa 7, 8
	ret
	.cfi_endproc
.LFE5028:
	.size	_ZNSt14__shared_countILN9__gnu_cxx12_Lock_policyE2EED2Ev, .-_ZNSt14__shared_countILN9__gnu_cxx12_Lock_policyE2EED2Ev
	.weak	_ZNSt14__shared_countILN9__gnu_cxx12_Lock_policyE2EED1Ev
	.set	_ZNSt14__shared_countILN9__gnu_cxx12_Lock_policyE2EED1Ev,_ZNSt14__shared_countILN9__gnu_cxx12_Lock_policyE2EED2Ev
	.section	.text._ZNSt8__detail8_ScannerIcED2Ev,"axG",@progbits,_ZNSt8__detail8_ScannerIcED5Ev,comdat
	.align 2
	.weak	_ZNSt8__detail8_ScannerIcED2Ev
	.type	_ZNSt8__detail8_ScannerIcED2Ev, @function
_ZNSt8__detail8_ScannerIcED2Ev:
.LFB5037:
	.cfi_startproc
	pushq	%rbp
	.cfi_def_cfa_offset 16
	.cfi_offset 6, -16
	movq	%rsp, %rbp
	.cfi_def_cfa_register 6
	subq	$16, %rsp
	movq	%rdi, -8(%rbp)
	movq	-8(%rbp), %rax
	addq	$200, %rax
	movq	%rax, %rdi
	call	_ZNSt7__cxx1112basic_stringIcSt11char_traitsIcESaIcEED1Ev@PLT
	nop
	leave
	.cfi_def_cfa 7, 8
	ret
	.cfi_endproc
.LFE5037:
	.size	_ZNSt8__detail8_ScannerIcED2Ev, .-_ZNSt8__detail8_ScannerIcED2Ev
	.weak	_ZNSt8__detail8_ScannerIcED1Ev
	.set	_ZNSt8__detail8_ScannerIcED1Ev,_ZNSt8__detail8_ScannerIcED2Ev
	.section	.text._ZNSt12__shared_ptrINSt8__detail4_NFAINSt7__cxx1112regex_traitsIcEEEELN9__gnu_cxx12_Lock_policyE2EED2Ev,"axG",@progbits,_ZNSt12__shared_ptrINSt8__detail4_NFAINSt7__cxx1112regex_traitsIcEEEELN9__gnu_cxx12_Lock_policyE2EED5Ev,comdat
	.align 2
	.weak	_ZNSt12__shared_ptrINSt8__detail4_NFAINSt7__cxx1112regex_traitsIcEEEELN9__gnu_cxx12_Lock_policyE2EED2Ev
	.type	_ZNSt12__shared_ptrINSt8__detail4_NFAINSt7__cxx1112regex_traitsIcEEEELN9__gnu_cxx12_Lock_policyE2EED2Ev, @function
_ZNSt12__shared_ptrINSt8__detail4_NFAINSt7__cxx1112regex_traitsIcEEEELN9__gnu_cxx12_Lock_policyE2EED2Ev:
.LFB5041:
	.cfi_startproc
	pushq	%rbp
	.cfi_def_cfa_offset 16
	.cfi_offset 6, -16
	movq	%rsp, %rbp
	.cfi_def_cfa_register 6
	subq	$16, %rsp
	movq	%rdi, -8(%rbp)
	movq	-8(%rbp), %rax
	addq	$8, %rax
	movq	%rax, %rdi
	call	_ZNSt14__shared_countILN9__gnu_cxx12_Lock_policyE2EED1Ev
	nop
	leave
	.cfi_def_cfa 7, 8
	ret
	.cfi_endproc
.LFE5041:
	.size	_ZNSt12__shared_ptrINSt8__detail4_NFAINSt7__cxx1112regex_traitsIcEEEELN9__gnu_cxx12_Lock_policyE2EED2Ev, .-_ZNSt12__shared_ptrINSt8__detail4_NFAINSt7__cxx1112regex_traitsIcEEEELN9__gnu_cxx12_Lock_policyE2EED2Ev
	.weak	_ZNSt12__shared_ptrINSt8__detail4_NFAINSt7__cxx1112regex_traitsIcEEEELN9__gnu_cxx12_Lock_policyE2EED1Ev
	.set	_ZNSt12__shared_ptrINSt8__detail4_NFAINSt7__cxx1112regex_traitsIcEEEELN9__gnu_cxx12_Lock_policyE2EED1Ev,_ZNSt12__shared_ptrINSt8__detail4_NFAINSt7__cxx1112regex_traitsIcEEEELN9__gnu_cxx12_Lock_policyE2EED2Ev
	.section	.text._ZNSt10shared_ptrINSt8__detail4_NFAINSt7__cxx1112regex_traitsIcEEEEED2Ev,"axG",@progbits,_ZNSt10shared_ptrINSt8__detail4_NFAINSt7__cxx1112regex_traitsIcEEEEED5Ev,comdat
	.align 2
	.weak	_ZNSt10shared_ptrINSt8__detail4_NFAINSt7__cxx1112regex_traitsIcEEEEED2Ev
	.type	_ZNSt10shared_ptrINSt8__detail4_NFAINSt7__cxx1112regex_traitsIcEEEEED2Ev, @function
_ZNSt10shared_ptrINSt8__detail4_NFAINSt7__cxx1112regex_traitsIcEEEEED2Ev:
.LFB5043:
	.cfi_startproc
	pushq	%rbp
	.cfi_def_cfa_offset 16
	.cfi_offset 6, -16
	movq	%rsp, %rbp
	.cfi_def_cfa_register 6
	subq	$16, %rsp
	movq	%rdi, -8(%rbp)
	movq	-8(%rbp), %rax
	movq	%rax, %rdi
	call	_ZNSt12__shared_ptrINSt8__detail4_NFAINSt7__cxx1112regex_traitsIcEEEELN9__gnu_cxx12_Lock_policyE2EED2Ev
	nop
	leave
	.cfi_def_cfa 7, 8
	ret
	.cfi_endproc
.LFE5043:
	.size	_ZNSt10shared_ptrINSt8__detail4_NFAINSt7__cxx1112regex_traitsIcEEEEED2Ev, .-_ZNSt10shared_ptrINSt8__detail4_NFAINSt7__cxx1112regex_traitsIcEEEEED2Ev
	.weak	_ZNSt10shared_ptrINSt8__detail4_NFAINSt7__cxx1112regex_traitsIcEEEEED1Ev
	.set	_ZNSt10shared_ptrINSt8__detail4_NFAINSt7__cxx1112regex_traitsIcEEEEED1Ev,_ZNSt10shared_ptrINSt8__detail4_NFAINSt7__cxx1112regex_traitsIcEEEEED2Ev
	.section	.text._ZNSt5stackINSt8__detail9_StateSeqINSt7__cxx1112regex_traitsIcEEEESt5dequeIS5_SaIS5_EEED2Ev,"axG",@progbits,_ZNSt5stackINSt8__detail9_StateSeqINSt7__cxx1112regex_traitsIcEEEESt5dequeIS5_SaIS5_EEED5Ev,comdat
	.align 2
	.weak	_ZNSt5stackINSt8__detail9_StateSeqINSt7__cxx1112regex_traitsIcEEEESt5dequeIS5_SaIS5_EEED2Ev
	.type	_ZNSt5stackINSt8__detail9_StateSeqINSt7__cxx1112regex_traitsIcEEEESt5dequeIS5_SaIS5_EEED2Ev, @function
_ZNSt5stackINSt8__detail9_StateSeqINSt7__cxx1112regex_traitsIcEEEESt5dequeIS5_SaIS5_EEED2Ev:
.LFB5046:
	.cfi_startproc
	pushq	%rbp
	.cfi_def_cfa_offset 16
	.cfi_offset 6, -16
	movq	%rsp, %rbp
	.cfi_def_cfa_register 6
	subq	$16, %rsp
	movq	%rdi, -8(%rbp)
	movq	-8(%rbp), %rax
	movq	%rax, %rdi
	call	_ZNSt5dequeINSt8__detail9_StateSeqINSt7__cxx1112regex_traitsIcEEEESaIS5_EED1Ev
	nop
	leave
	.cfi_def_cfa 7, 8
	ret
	.cfi_endproc
.LFE5046:
	.size	_ZNSt5stackINSt8__detail9_StateSeqINSt7__cxx1112regex_traitsIcEEEESt5dequeIS5_SaIS5_EEED2Ev, .-_ZNSt5stackINSt8__detail9_StateSeqINSt7__cxx1112regex_traitsIcEEEESt5dequeIS5_SaIS5_EEED2Ev
	.weak	_ZNSt5stackINSt8__detail9_StateSeqINSt7__cxx1112regex_traitsIcEEEESt5dequeIS5_SaIS5_EEED1Ev
